ccopy_reg
_reconstructor
p0
(cNN
NNRAM
p1
c__builtin__
object
p2
Ntp3
Rp4
(dp5
S'_backward_hooks'
p6
ccollections
OrderedDict
p7
((lp8
tp9
Rp10
sS'_forward_pre_hooks'
p11
g7
((lp12
tp13
Rp14
sS'_backend'
p15
ctorch.nn.backends.thnn
_get_thnn_function_backend
p16
(tRp17
sS'_forward_hooks'
p18
g7
((lp19
tp20
Rp21
sS'_modules'
p22
g7
((lp23
(lp24
S'lin1'
p25
ag0
(ctorch.nn.modules.linear
Linear
p26
g2
Ntp27
Rp28
(dp29
g6
g7
((lp30
tp31
Rp32
sg11
g7
((lp33
tp34
Rp35
sg15
g17
sS'in_features'
p36
I128
sS'out_features'
p37
I50
sg18
g7
((lp38
tp39
Rp40
sg22
g7
((lp41
tp42
Rp43
sS'_parameters'
p44
g7
((lp45
(lp46
S'weight'
p47
accopy_reg
__newobj__
p48
(ctorch.nn.parameter
Parameter
p49
ctorch._utils
_rebuild_tensor
p50
(ctorch
FloatStorage
p51
((lp52
F0.03408847376704216
aF-0.05661213770508766
aF-0.12058356404304504
aF-0.12954963743686676
aF-0.01850416511297226
aF-0.14587198197841644
aF-0.1677473783493042
aF-0.11734388023614883
aF-0.09837708622217178
aF-0.18279419839382172
aF-0.15557017922401428
aF0.05754927545785904
aF-0.15267717838287354
aF-0.0801275223493576
aF-0.09538979828357697
aF-0.06766121089458466
aF-0.11896370351314545
aF-0.048160046339035034
aF-0.041236743330955505
aF-0.18172197043895721
aF-0.05642560496926308
aF0.012472127564251423
aF-0.11474242061376572
aF0.027925506234169006
aF-0.00905640609562397
aF-0.08832181245088577
aF-0.1773228943347931
aF-0.04794863611459732
aF-0.11021140217781067
aF-0.15057311952114105
aF-0.015489481389522552
aF0.040859755128622055
aF-0.1638486385345459
aF-0.07135365903377533
aF0.06838849186897278
aF-0.11620018631219864
aF-0.18163809180259705
aF-0.05315783619880676
aF-0.11528147757053375
aF-0.07047249376773834
aF-0.029424253851175308
aF-0.08531476557254791
aF-0.028342880308628082
aF-0.1802796721458435
aF-0.14677560329437256
aF-0.030401520431041718
aF-0.07327734678983688
aF-0.08244241774082184
aF-0.013795830309391022
aF-0.18409687280654907
aF-0.12074121832847595
aF-0.13090458512306213
aF-0.11377860605716705
aF-0.03978849574923515
aF0.08206652849912643
aF-0.03341859579086304
aF-0.16406801342964172
aF-0.03189084306359291
aF-0.12981002032756805
aF-0.17883998155593872
aF-0.053011853247880936
aF-0.11280182003974915
aF-0.0124165378510952
aF-0.013347350060939789
aF-0.09210332483053207
aF-0.15598993003368378
aF-0.07718527317047119
aF-0.0974406749010086
aF-0.11229076236486435
aF-0.11803464591503143
aF-0.03362497687339783
aF-0.18592795729637146
aF-0.09790850430727005
aF-0.13427124917507172
aF-0.053538739681243896
aF-0.14792853593826294
aF-0.03625717759132385
aF-0.13262909650802612
aF-0.0713430792093277
aF-0.04282967373728752
aF-0.03747989237308502
aF-0.02303621917963028
aF-0.07239863276481628
aF-0.09405765682458878
aF-0.07726270705461502
aF-0.12822943925857544
aF-0.12834611535072327
aF-0.11794450134038925
aF-0.06143985688686371
aF-0.05645066872239113
aF-0.1577298939228058
aF-0.09806641936302185
aF-0.02830735594034195
aF-0.08260711282491684
aF-0.137411966919899
aF-0.0506286695599556
aF-0.05295123904943466
aF-0.17371389269828796
aF-0.07261485606431961
aF-0.170430988073349
aF-0.06952454894781113
aF-0.114682637155056
aF-0.18702277541160583
aF-0.08744429796934128
aF-0.08323001116514206
aF-0.06355662643909454
aF-0.1874534785747528
aF-0.07126063853502274
aF-0.12085951864719391
aF-0.17819510400295258
aF-0.03413655608892441
aF-0.0303342342376709
aF-0.1591458022594452
aF-0.07385244220495224
aF-0.17170925438404083
aF-0.1490451991558075
aF-0.04483833909034729
aF-0.020633652806282043
aF0.058796897530555725
aF-0.16780200600624084
aF-0.14647263288497925
aF-0.11429376900196075
aF0.07610616087913513
aF-0.18016564846038818
aF-0.030802153050899506
aF-0.18629607558250427
aF-0.17121204733848572
aF-0.12594960629940033
aF0.06468915939331055
aF-0.18354502320289612
aF-0.07782750576734543
aF-0.13584989309310913
aF-0.026764273643493652
aF-0.048755090683698654
aF-0.15253214538097382
aF-0.1097910925745964
aF-0.08906518667936325
aF-0.021158374845981598
aF-0.060560442507267
aF0.025464380159974098
aF-0.12919576466083527
aF-0.062302716076374054
aF-0.04785044491291046
aF-0.1594284027814865
aF-0.014483749866485596
aF0.02371259219944477
aF-0.10623659193515778
aF-0.10569026321172714
aF0.05329519137740135
aF-0.02936217375099659
aF-0.0963781476020813
aF-0.05898679047822952
aF-0.03439709544181824
aF-0.16356110572814941
aF-0.18457871675491333
aF-0.17149612307548523
aF-0.17834003269672394
aF-0.15691596269607544
aF-0.05079302936792374
aF0.06253072619438171
aF-0.18256232142448425
aF-0.05211402475833893
aF-0.059196170419454575
aF-0.041464388370513916
aF-0.051954302936792374
aF-0.1706703156232834
aF-0.07216743379831314
aF-0.032020293176174164
aF-0.008587585762143135
aF-0.0624052993953228
aF-0.0628567785024643
aF-0.041267432272434235
aF-0.14616788923740387
aF-0.1545793116092682
aF-0.006907905917614698
aF-0.1245679259300232
aF-0.07883204519748688
aF-0.1724853217601776
aF-0.1581222265958786
aF-0.017983637750148773
aF-0.1821085810661316
aF-0.18469488620758057
aF0.050239332020282745
aF-0.044239774346351624
aF-0.07870031148195267
aF-0.00935449544340372
aF-0.1766141951084137
aF-0.06717579066753387
aF-0.17562748491764069
aF-0.09359018504619598
aF0.05422552675008774
aF-0.17091117799282074
aF-0.10702212154865265
aF-0.07893062382936478
aF-0.13416451215744019
aF-0.09748126566410065
aF-0.16013982892036438
aF-0.044608138501644135
aF-0.12961606681346893
aF-0.05865594372153282
aF-0.11350642889738083
aF-0.054288599640131
aF-0.13240543007850647
aF-0.15134704113006592
aF-0.1568853259086609
aF-0.11002305895090103
aF-0.06346070766448975
aF-0.043752916157245636
aF-0.12290193140506744
aF-0.042065925896167755
aF-0.11602846533060074
aF-0.08669298887252808
aF-0.025429122149944305
aF-0.04947936162352562
aF-0.05627746134996414
aF-0.10261902958154678
aF-0.1745648980140686
aF-0.04976291581988335
aF-0.17339065670967102
aF-0.17263564467430115
aF-0.17879801988601685
aF-0.1346266269683838
aF-0.14940281212329865
aF-0.0625946968793869
aF-0.1452229768037796
aF-0.17023777961730957
aF-0.17222177982330322
aF-0.04802593216300011
aF-0.17248857021331787
aF-0.10705801844596863
aF-0.0854005441069603
aF-0.011810846626758575
aF-0.0562756210565567
aF-0.17833499610424042
aF-0.10699377954006195
aF-0.0329342857003212
aF-0.055124685168266296
aF-0.06042270362377167
aF-0.18170395493507385
aF-0.11975160986185074
aF-0.06931596994400024
aF-0.05667448043823242
aF-0.1113954409956932
aF-0.05011143162846565
aF0.057323552668094635
aF-0.012195579707622528
aF-0.06535513699054718
aF-0.1466759890317917
aF-0.03672292083501816
aF-0.1615871787071228
aF-0.07555229961872101
aF-0.03957941010594368
aF-0.04695861414074898
aF-0.04067070782184601
aF-0.1363525390625
aF-0.05131034180521965
aF0.03595561534166336
aF-0.1396772265434265
aF-0.16319426894187927
aF-0.1710796058177948
aF-0.17607885599136353
aF0.07182710617780685
aF-0.09608772397041321
aF-0.0653907060623169
aF-0.0893239825963974
aF-0.18648722767829895
aF-0.13981302082538605
aF0.04168436676263809
aF-0.13017700612545013
aF-0.1845742166042328
aF-0.1535479724407196
aF-0.16903138160705566
aF-0.12960365414619446
aF-0.05438796430826187
aF-0.00015688514395151287
aF-0.11212794482707977
aF-0.02409333363175392
aF-0.07199332863092422
aF-0.15778206288814545
aF0.0680117979645729
aF0.01730315573513508
aF-0.062119629234075546
aF-0.015749402344226837
aF-0.08414889872074127
aF-0.029892347753047943
aF-0.05604499951004982
aF-0.03863215446472168
aF-0.05030941963195801
aF-0.05760473757982254
aF-0.1626194715499878
aF0.026293989270925522
aF-0.1480518877506256
aF-0.06698654592037201
aF-0.07331991195678711
aF-0.027009999379515648
aF-0.1508980095386505
aF-0.059600066393613815
aF-0.07487194985151291
aF-0.170634925365448
aF0.08102764189243317
aF-0.06679747998714447
aF-0.12592098116874695
aF0.07167111337184906
aF-0.15985837578773499
aF-0.011646702885627747
aF-0.07057466357946396
aF0.01877444051206112
aF-0.073004812002182
aF-0.17808963358402252
aF-0.16693508625030518
aF-0.018880106508731842
aF-0.038830045610666275
aF-0.1828126311302185
aF-0.07103635370731354
aF-0.09231270104646683
aF-0.11186810582876205
aF-0.07079502940177917
aF-0.038838449865579605
aF-0.01160448882728815
aF-0.16993431746959686
aF-0.03728889673948288
aF-0.05348486453294754
aF-0.16727185249328613
aF-0.017830803990364075
aF-0.13120144605636597
aF-0.1611659824848175
aF-0.16240566968917847
aF-0.1841212809085846
aF-0.0652855634689331
aF-0.07920025289058685
aF-0.1715025007724762
aF-0.05352790281176567
aF-0.03837981075048447
aF-0.09839898347854614
aF-0.08696743100881577
aF-0.1341736912727356
aF-0.036592915654182434
aF-0.05550674349069595
aF-0.04480786249041557
aF-0.09539808332920074
aF-0.03618502616882324
aF-0.12597712874412537
aF-0.06926002353429794
aF-0.11072564125061035
aF-0.1257866621017456
aF-0.03981136903166771
aF-0.0687313973903656
aF-0.05222541466355324
aF-0.10619313269853592
aF-0.04744967445731163
aF-0.17599758505821228
aF-0.07091524451971054
aF-0.11653219163417816
aF-0.1580565720796585
aF-0.034859657287597656
aF-0.06253542006015778
aF-0.10248709470033646
aF-0.13282273709774017
aF-0.10700258612632751
aF-0.08325817435979843
aF-0.09669074416160583
aF-0.04606174677610397
aF-0.12340191751718521
aF-0.0558670349419117
aF-0.03438567370176315
aF-0.0651722103357315
aF-0.036871686577796936
aF-0.09535010904073715
aF-0.09436529874801636
aF-0.12029099464416504
aF-0.16584688425064087
aF-0.07004020363092422
aF0.0491834431886673
aF-0.03137480467557907
aF-0.11691076308488846
aF-0.0157369002699852
aF-0.11476974189281464
aF0.06745676696300507
aF0.015760067850351334
aF-0.039966367185115814
aF-0.12545201182365417
aF-0.13694608211517334
aF-0.06577205657958984
aF-0.051191624253988266
aF0.08603694289922714
aF-0.2595101594924927
aF-0.1539647877216339
aF-0.2105875313282013
aF-0.041440676897764206
aF-0.09852983057498932
aF-0.09376393258571625
aF-0.13601532578468323
aF-0.16160860657691956
aF-0.1487170159816742
aF-0.1378163844347
aF-0.033208273351192474
aF-0.10800457745790482
aF-0.13612079620361328
aF-0.17094314098358154
aF-0.0854509025812149
aF-0.02959509938955307
aF-0.035725489258766174
aF0.042656347155570984
aF-0.05302868410944939
aF-0.04149327054619789
aF-0.07210236042737961
aF-0.13143666088581085
aF0.0014537909300997853
aF-0.058426979929208755
aF-0.02837952971458435
aF-0.2728143334388733
aF-0.11693008244037628
aF-0.17041197419166565
aF-0.06663814187049866
aF-0.08447902649641037
aF-0.1715017408132553
aF-0.13771000504493713
aF-0.27962225675582886
aF0.020416410639882088
aF-0.07987004518508911
aF-0.11251576244831085
aF0.05963726341724396
aF0.011059142649173737
aF0.058310121297836304
aF0.008621304295957088
aF-0.007091857492923737
aF-0.26388996839523315
aF-0.27464818954467773
aF0.002815753221511841
aF-0.16258960962295532
aF0.0387270525097847
aF-0.13253998756408691
aF-0.10415865480899811
aF-0.059218764305114746
aF-0.015929609537124634
aF-0.13752764463424683
aF-0.009164519608020782
aF-0.15291890501976013
aF-0.10501278936862946
aF-0.17269083857536316
aF-0.10881171375513077
aF-0.13457995653152466
aF-0.08261872082948685
aF-0.10375720262527466
aF-0.0998535007238388
aF-0.09962012618780136
aF0.028973909094929695
aF-0.1520279198884964
aF-0.04843665286898613
aF-0.15988357365131378
aF-0.18957817554473877
aF-0.07520148158073425
aF-0.14880689978599548
aF-0.08087025582790375
aF-0.15301164984703064
aF-0.1840028315782547
aF-0.14972138404846191
aF-0.1272674798965454
aF-0.11963112652301788
aF-0.07064016908407211
aF-0.06892851740121841
aF-0.09271545708179474
aF-0.18728163838386536
aF-0.04927240312099457
aF-0.1065983697772026
aF-0.18693777918815613
aF-0.09282130748033524
aF-0.02042771875858307
aF-0.08601929992437363
aF-0.13684450089931488
aF-0.030873849987983704
aF-0.03469099849462509
aF-0.07469452917575836
aF-0.16996443271636963
aF-0.16987751424312592
aF-0.04317907243967056
aF-0.16647332906723022
aF-0.02377607673406601
aF-0.19190770387649536
aF0.062066443264484406
aF-0.1338888704776764
aF-0.19485510885715485
aF-0.1790911704301834
aF-0.15156571567058563
aF-0.1455080509185791
aF-0.03865578770637512
aF-0.11434285342693329
aF-0.07693903893232346
aF-0.10639143735170364
aF-0.23679706454277039
aF-0.17698708176612854
aF-0.19885635375976562
aF-0.1425340324640274
aF-0.03304996341466904
aF-0.05397701635956764
aF-0.12094135582447052
aF-0.08929654955863953
aF-0.1135438084602356
aF-0.03480503708124161
aF-0.021281853318214417
aF0.02812436781823635
aF-0.14439144730567932
aF0.06174151599407196
aF-0.0024669617414474487
aF-0.11580856144428253
aF0.0906452164053917
aF-0.03025335632264614
aF-0.061080411076545715
aF-0.18176613748073578
aF-0.030174508690834045
aF-0.16345348954200745
aF-0.10473623126745224
aF0.017259640619158745
aF0.10245158523321152
aF-0.008726426400244236
aF0.04026453569531441
aF0.0750676691532135
aF-0.06800324469804764
aF0.06200234964489937
aF-0.17523369193077087
aF-0.2268839031457901
aF-0.20377656817436218
aF0.04007534682750702
aF0.9234684109687805
aF0.054489780217409134
aF-0.09803060442209244
aF0.045570649206638336
aF-0.1077074185013771
aF-0.06411933153867722
aF0.11843617260456085
aF0.31188255548477173
aF-0.04123937711119652
aF-0.02777542546391487
aF0.08351121842861176
aF-0.05969519540667534
aF-0.08622515201568604
aF-0.08560577034950256
aF-0.08514223247766495
aF-0.10889983177185059
aF-0.15419074892997742
aF-0.04227744787931442
aF-0.2726561427116394
aF0.09064175188541412
aF0.2765536606311798
aF0.03177917003631592
aF-0.30131039023399353
aF0.2169593721628189
aF0.03822817653417587
aF-0.015855928882956505
aF-0.011442460119724274
aF-0.10843323171138763
aF0.014705552719533443
aF-0.01924029551446438
aF0.008183708414435387
aF0.012891723774373531
aF0.010867291130125523
aF0.20391061902046204
aF-0.14796261489391327
aF-0.5457302927970886
aF-0.05671025440096855
aF-0.006150307599455118
aF0.09149647504091263
aF0.10043642669916153
aF-0.028863878920674324
aF-0.003869915846735239
aF0.007129831239581108
aF0.07594309002161026
aF0.14072862267494202
aF0.3362482190132141
aF0.5594947338104248
aF-0.27483537793159485
aF0.010099079459905624
aF-0.013565541245043278
aF-0.08829914033412933
aF0.024555813521146774
aF-0.06490997970104218
aF0.015273895114660263
aF-0.01352932583540678
aF-0.10213212668895721
aF-0.058653492480516434
aF-0.108674056828022
aF-0.02215978130698204
aF-0.08776967227458954
aF-0.2576102316379547
aF-0.04184512048959732
aF-0.08852917701005936
aF-0.06755504757165909
aF-0.021532494574785233
aF0.02330934628844261
aF-0.1099802777171135
aF-0.08641241490840912
aF-0.052502475678920746
aF-0.07148907333612442
aF-0.026530370116233826
aF-0.11909850686788559
aF-0.11525558680295944
aF0.0018030297942459583
aF-0.12347520887851715
aF0.03151553124189377
aF0.023450227454304695
aF-0.0989169180393219
aF-0.11644133180379868
aF-0.06469842791557312
aF-0.1325920969247818
aF-0.07180827856063843
aF-0.06805070489645004
aF-0.017166052013635635
aF0.08075448870658875
aF-0.07556633651256561
aF-0.11030898243188858
aF-0.07269179821014404
aF0.014827119186520576
aF0.006322428118437529
aF0.026183973997831345
aF0.010814833454787731
aF0.003025343641638756
aF-0.027114402502775192
aF-0.07871945202350616
aF-0.11241021007299423
aF-0.026827771216630936
aF-0.02097119763493538
aF-0.1161530613899231
aF-0.04772387817502022
aF-0.08160519599914551
aF0.007557495962828398
aF0.02143343910574913
aF-0.09158837050199509
aF-0.04433665797114372
aF-0.30664727091789246
aF-0.025697452947497368
aF0.008170926943421364
aF0.047222889959812164
aF-0.3193308711051941
aF0.21015259623527527
aF-0.052838511765003204
aF-0.22165796160697937
aF0.002227282151579857
aF-0.049933139234781265
aF-0.041298627853393555
aF-0.0439775213599205
aF0.055308688431978226
aF-0.15164780616760254
aF-0.04942594841122627
aF-0.11647871136665344
aF-0.13809698820114136
aF-0.11259318143129349
aF-0.09844869375228882
aF-0.08876815438270569
aF-0.06401591002941132
aF-0.11413127183914185
aF-0.10537298023700714
aF-0.027168456465005875
aF-0.040799472481012344
aF-0.03536582738161087
aF-0.15496939420700073
aF-0.06259673833847046
aF-0.15758726000785828
aF0.03806628659367561
aF-0.028367752209305763
aF-0.18743813037872314
aF-0.07806061208248138
aF0.0021181651391088963
aF-0.15462958812713623
aF-0.06432211399078369
aF0.02805420383810997
aF-0.05862635374069214
aF-0.18393561244010925
aF-0.06791052967309952
aF-0.05537983402609825
aF-0.11730819195508957
aF-0.15923064947128296
aF0.051873236894607544
aF-0.1828894019126892
aF0.02703212760388851
aF-0.038354016840457916
aF-0.17093899846076965
aF-0.14502699673175812
aF-0.46345019340515137
aF-0.06737589091062546
aF-0.1296289563179016
aF-0.04844409599900246
aF-0.1701965630054474
aF-0.07929404079914093
aF-0.7163171768188477
aF0.07115426659584045
aF-0.07654830813407898
aF0.04899907857179642
aF-0.12466640025377274
aF-0.08575983345508575
aF-0.6171971559524536
aF-0.07001786679029465
aF-0.06345302611589432
aF-0.02030298113822937
aF-0.14446747303009033
aF-0.12854743003845215
aF0.006631706841289997
aF-0.10113219171762466
aF-0.08029868453741074
aF-0.03592407703399658
aF-0.054995592683553696
aF-0.01505955308675766
aF-0.18768936395645142
aF-0.04025169461965561
aF-0.0627036765217781
aF-0.1516287922859192
aF-0.08049541711807251
aF-0.09178811311721802
aF-0.09004294872283936
aF-0.18118003010749817
aF-0.019995294511318207
aF-0.11344179511070251
aF-0.1097734272480011
aF-0.06293381005525589
aF-0.16680237650871277
aF-0.07409936189651489
aF-0.08704680949449539
aF-0.04028390720486641
aF-0.1514480859041214
aF-0.17726662755012512
aF-0.02389661967754364
aF-0.17284807562828064
aF-0.04783354699611664
aF-0.020137712359428406
aF-0.17886099219322205
aF-0.16103555262088776
aF-0.04234061390161514
aF-0.15684683620929718
aF-0.15381228923797607
aF-0.04079553857445717
aF-0.10326915979385376
aF-0.08047503978013992
aF-0.11602479219436646
aF-0.09284841269254684
aF-0.054557688534259796
aF-0.09769690036773682
aF0.06775575131177902
aF-0.09368181228637695
aF-0.1282130777835846
aF-0.1563977748155594
aF-0.17609721422195435
aF-0.040569040924310684
aF-0.020588956773281097
aF-0.09348595142364502
aF-0.14270496368408203
aF-0.04832465946674347
aF-0.1615923047065735
aF-0.1577974557876587
aF-0.16120539605617523
aF-0.03324618190526962
aF-0.13443802297115326
aF-0.10260964184999466
aF-0.05997401848435402
aF-0.12516331672668457
aF-0.05778873339295387
aF-0.12620878219604492
aF-0.1387099027633667
aF0.0028273381758481264
aF-0.13407114148139954
aF-0.07473520189523697
aF-0.375540167093277
aF-0.4056532382965088
aF-0.04280456155538559
aF0.0261490847915411
aF-0.12714016437530518
aF-0.09709430485963821
aF-0.1102747991681099
aF-0.11152251064777374
aF-0.09574275463819504
aF0.019372491165995598
aF-0.16653203964233398
aF-0.028107337653636932
aF-0.18163789808750153
aF-0.07411542534828186
aF-0.13184890151023865
aF-0.07495609670877457
aF-0.09680730849504471
aF-0.15453073382377625
aF-0.0662725567817688
aF-0.13635006546974182
aF-0.0032161418348550797
aF-0.1784956455230713
aF-0.021506965160369873
aF-0.013781324028968811
aF-0.10022341459989548
aF-0.18309465050697327
aF-0.18728306889533997
aF-0.15008984506130219
aF-0.10511640459299088
aF-0.03826066851615906
aF0.07870937883853912
aF-0.09316534548997879
aF0.05484788864850998
aF0.039154279977083206
aF-0.056533779948949814
aF-0.15206795930862427
aF-0.07967370003461838
aF-0.16570615768432617
aF-0.18825431168079376
aF-0.18104195594787598
aF-0.16308316588401794
aF-0.15811419486999512
aF-0.17809511721134186
aF0.000621471437625587
aF-0.13497288525104523
aF-0.1444021761417389
aF-0.0642818957567215
aF-0.1693132221698761
aF-0.0477779358625412
aF0.073934406042099
aF-0.14051082730293274
aF-0.11255241930484772
aF-0.08492323756217957
aF-0.075372114777565
aF-0.06209554523229599
aF-0.05414614453911781
aF-0.18409371376037598
aF-0.060809001326560974
aF-0.05571046844124794
aF-0.14322331547737122
aF-0.021633826196193695
aF-0.11279917508363724
aF-0.02071884274482727
aF0.059727851301431656
aF-0.09187939763069153
aF-0.05641918629407883
aF0.03149384260177612
aF-0.18523326516151428
aF-0.14103204011917114
aF-0.05317450314760208
aF-0.04230780899524689
aF-0.05034719780087471
aF-0.10021211206912994
aF-0.1341170370578766
aF-0.1142980307340622
aF-0.17269550263881683
aF-0.13722796738147736
aF-0.09665894508361816
aF-0.0904276892542839
aF-0.0349012091755867
aF-0.001241631107404828
aF-0.18217343091964722
aF-0.1878042221069336
aF-0.05340569093823433
aF-0.10398223996162415
aF-0.12122032046318054
aF-0.1298990696668625
aF-0.18168330192565918
aF-0.061341434717178345
aF-0.17440414428710938
aF-0.11654581874608994
aF-0.08836560696363449
aF-0.06023130565881729
aF-0.14159518480300903
aF-0.18459925055503845
aF-0.18166562914848328
aF-0.033869557082653046
aF-0.09618939459323883
aF0.07906955480575562
aF-0.12818515300750732
aF-0.06483100354671478
aF-0.06784569472074509
aF-0.023141883313655853
aF-0.08775701373815536
aF-0.08771196007728577
aF-0.17005732655525208
aF-0.1336449235677719
aF-0.0016805115155875683
aF-0.09603697061538696
aF-0.12725742161273956
aF-0.04323378950357437
aF-0.18559487164020538
aF-0.03816286101937294
aF-0.01557033509016037
aF-0.05289973318576813
aF-0.15756818652153015
aF-0.13776369392871857
aF-0.18628673255443573
aF-0.167085200548172
aF-0.133408784866333
aF-0.052607759833335876
aF-0.10220645368099213
aF-0.10792694985866547
aF-0.03439988195896149
aF-0.02208341658115387
aF0.01717827282845974
aF-0.13433510065078735
aF0.020456550642848015
aF-0.1150771901011467
aF-0.018838196992874146
aF-0.034944698214530945
aF0.0805572047829628
aF-0.06790696084499359
aF-0.04253960773348808
aF-0.08928212523460388
aF-0.18218989670276642
aF-0.13903184235095978
aF0.07664022594690323
aF-0.06550911068916321
aF-0.01328887790441513
aF-0.17122820019721985
aF-0.08214805275201797
aF-0.13588666915893555
aF-0.036816664040088654
aF-0.16706295311450958
aF-0.13686639070510864
aF-0.14188459515571594
aF-0.06926824897527695
aF0.013192170299589634
aF-0.0675966739654541
aF-0.15864303708076477
aF-0.0153144970536232
aF-0.0579683780670166
aF-0.022366806864738464
aF0.0482780747115612
aF-0.03751606494188309
aF-0.13445496559143066
aF0.05841927230358124
aF-0.07303927838802338
aF-0.12563546001911163
aF0.015116017311811447
aF0.07939882576465607
aF-0.04046069085597992
aF-0.042013783007860184
aF-0.1305324137210846
aF-0.09937731176614761
aF-0.06723745167255402
aF-0.04680287465453148
aF-0.06308242678642273
aF-0.09547588229179382
aF-0.13173070549964905
aF0.03990420699119568
aF-0.16845279932022095
aF-0.11768794059753418
aF-0.07504390180110931
aF-0.17383556067943573
aF-0.14081329107284546
aF0.03342808783054352
aF-0.06949210911989212
aF-0.04803450405597687
aF-0.042167481034994125
aF-0.025473982095718384
aF-0.08528360724449158
aF-0.01904253289103508
aF-0.18245865404605865
aF-0.012590624392032623
aF-0.1771426647901535
aF-0.11305731534957886
aF-0.08578723669052124
aF-0.15594059228897095
aF-0.017908118665218353
aF-0.030419016256928444
aF-0.07985245436429977
aF-0.16190774738788605
aF0.07457086443901062
aF-0.1321428418159485
aF-0.16415083408355713
aF-0.09675492346286774
aF-0.061903756111860275
aF0.04820772632956505
aF-0.13826589286327362
aF-0.01620911806821823
aF-0.04541895166039467
aF-0.14466001093387604
aF-0.11359603703022003
aF-0.0501706637442112
aF-0.1617746651172638
aF-0.11243557929992676
aF-0.1295824497938156
aF-0.16749700903892517
aF-0.1303650438785553
aF-0.09157620370388031
aF-0.024227939546108246
aF-0.1511261761188507
aF-0.14835834503173828
aF-0.022497929632663727
aF-0.15339182317256927
aF-0.01880854368209839
aF-0.10813181847333908
aF-0.07463205605745316
aF-0.148919939994812
aF-0.1330948770046234
aF-0.030643165111541748
aF-0.04676982760429382
aF-0.18804596364498138
aF-0.0667940154671669
aF-0.03827686607837677
aF-0.06047108396887779
aF-0.11188872158527374
aF-0.17298510670661926
aF-0.04031989350914955
aF-0.18176470696926117
aF0.08371473103761673
aF-0.09656058996915817
aF-0.16287443041801453
aF-0.08887315541505814
aF-0.08226660639047623
aF-0.08217882364988327
aF-0.1079966276884079
aF-0.03229198604822159
aF-0.15671327710151672
aF-0.08794806897640228
aF-0.13300590217113495
aF-0.08893397450447083
aF-0.08218671381473541
aF-0.035704657435417175
aF-0.09034612029790878
aF-0.059283547103405
aF-0.08879967033863068
aF-0.11775760352611542
aF-0.14051976799964905
aF-0.1566847860813141
aF-0.0872817113995552
aF-0.0868610218167305
aF-0.15549904108047485
aF-0.08136794716119766
aF-0.0851273387670517
aF-0.10669219493865967
aF-0.037605464458465576
aF-0.04020851477980614
aF-0.09283275157213211
aF-0.16313588619232178
aF-0.17674633860588074
aF-0.14956647157669067
aF-0.1260019689798355
aF-0.025362303480505943
aF-0.01645229198038578
aF-0.05717605724930763
aF-0.08736876398324966
aF-0.08290421217679977
aF-0.03659337759017944
aF-0.03509785979986191
aF0.03272102400660515
aF0.06471346318721771
aF0.015234015882015228
aF-0.04985114932060242
aF-0.07290209084749222
aF-0.06863623112440109
aF-0.08264204114675522
aF-0.032924260944128036
aF0.08014202117919922
aF-0.040871720761060715
aF0.017634011805057526
aF-0.004005906172096729
aF0.007699113339185715
aF0.01878613419830799
aF0.004857624880969524
aF-0.025529898703098297
aF-0.06132595241069794
aF0.02612793631851673
aF-0.05525700002908707
aF-0.04283249378204346
aF-0.07894159853458405
aF-0.08785704523324966
aF0.06521670520305634
aF0.038717906922101974
aF-0.02235284075140953
aF0.05426893010735512
aF-0.07443089783191681
aF0.04598769545555115
aF-0.05002523213624954
aF-0.08460277318954468
aF0.01986297033727169
aF0.06506948173046112
aF-0.0836281105875969
aF0.04583289101719856
aF-0.002422453137114644
aF0.07299123704433441
aF0.048949677497148514
aF-0.02688969485461712
aF-0.07240436226129532
aF0.008369352668523788
aF0.08467480540275574
aF0.02947867289185524
aF-0.002330827061086893
aF-0.003478406695649028
aF-0.04993459954857826
aF0.01407864410430193
aF0.014579352922737598
aF0.019897351041436195
aF-0.03329276293516159
aF-0.07312428951263428
aF-0.0017618146957829595
aF0.04055313766002655
aF-0.011702273972332478
aF-0.060686178505420685
aF-0.08322810381650925
aF0.07943947613239288
aF-0.053633540868759155
aF0.04920881986618042
aF0.08802452683448792
aF0.009659853763878345
aF-0.04461781308054924
aF-0.004368403926491737
aF-0.0004306620976421982
aF-0.08819178491830826
aF0.011707190424203873
aF0.04131699725985527
aF0.08479190617799759
aF0.07159311324357986
aF-0.0869641900062561
aF0.03291315212845802
aF-0.0776696652173996
aF0.08395455032587051
aF0.06625770032405853
aF-0.0284037534147501
aF0.006413891911506653
aF-0.03501524031162262
aF-0.07107257843017578
aF0.05451666936278343
aF-0.06905245035886765
aF0.04670652374625206
aF-0.06903444975614548
aF0.005178254563361406
aF-0.013105252757668495
aF0.011361057870090008
aF-0.046772632747888565
aF-0.08649861067533493
aF-0.0005506498273462057
aF0.0100741321220994
aF-0.07534530758857727
aF0.020594239234924316
aF-0.07368578016757965
aF-0.005032842513173819
aF-0.08778612315654755
aF-0.06071189045906067
aF-0.03315255790948868
aF0.025766242295503616
aF-0.019044701009988785
aF0.002440051641315222
aF0.0014504551654681563
aF0.03470863401889801
aF-0.017166618257761
aF-0.034521520137786865
aF-0.06281156837940216
aF0.01875707507133484
aF-0.0044263978488743305
aF-0.003992131911218166
aF-0.021197309717535973
aF0.030501317232847214
aF-0.08431560546159744
aF-0.02885926514863968
aF-0.08186738193035126
aF-0.027331411838531494
aF-0.04332348704338074
aF0.011421154253184795
aF0.004320536740124226
aF0.05745701864361763
aF-0.017802603542804718
aF-0.04023884981870651
aF-0.008568472228944302
aF0.038564443588256836
aF-0.07608793675899506
aF-0.011584899388253689
aF-0.11963073909282684
aF-0.1014767661690712
aF-0.03543543070554733
aF-0.16042101383209229
aF-0.17425844073295593
aF-0.14973658323287964
aF-0.05287326127290726
aF-0.05201040580868721
aF-0.13819175958633423
aF-0.05774799361824989
aF-0.14647279679775238
aF-0.12067252397537231
aF-0.04701804742217064
aF-0.04548294469714165
aF-0.1496494710445404
aF-0.09080788493156433
aF-0.03531727194786072
aF0.10558100789785385
aF-0.09343288838863373
aF0.01879340410232544
aF0.017477136105298996
aF-0.005061633884906769
aF-0.05611656978726387
aF-0.01802254095673561
aF-0.05377870425581932
aF-0.12934239208698273
aF-0.090899258852005
aF-0.0577402301132679
aF-0.18813923001289368
aF-0.16238480806350708
aF-0.036695949733257294
aF-0.11846189200878143
aF-0.13414688408374786
aF-0.1856706440448761
aF-0.01708168536424637
aF-0.13421306014060974
aF-0.15044410526752472
aF-0.09657306224107742
aF-0.08039450645446777
aF-0.07652119547128677
aF-0.04177318140864372
aF-0.05861537531018257
aF-0.04050062969326973
aF-0.15395310521125793
aF-0.1221822053194046
aF-0.18766358494758606
aF-0.18266700208187103
aF-0.058310091495513916
aF-0.1760900318622589
aF-0.016733944416046143
aF-0.0717015191912651
aF-0.0410008542239666
aF-0.16108380258083344
aF-0.19939355552196503
aF-0.15569756925106049
aF-0.14646869897842407
aF0.0499701127409935
aF-0.16285963356494904
aF-0.05472607910633087
aF-0.12160688638687134
aF-0.13133341073989868
aF0.08680649101734161
aF-0.02253401279449463
aF-0.0508466511964798
aF-0.0179513618350029
aF-0.09223826229572296
aF-0.13682690262794495
aF-0.13866685330867767
aF-0.1677009016275406
aF-0.031243443489074707
aF-0.061838358640670776
aF-0.1347578465938568
aF-0.16403208673000336
aF-0.12795069813728333
aF-0.07155966013669968
aF-0.024298541247844696
aF-0.18302102386951447
aF-0.12432238459587097
aF-0.08350642025470734
aF-0.1743517369031906
aF-0.17336389422416687
aF-0.16865479946136475
aF-0.11839316040277481
aF-0.055491041392087936
aF-0.10259571671485901
aF-0.11812593042850494
aF-0.09707716852426529
aF-0.18667426705360413
aF-0.203169584274292
aF-0.14907348155975342
aF-0.16512379050254822
aF-0.1718505620956421
aF-0.09429828822612762
aF-0.12865279614925385
aF0.005680104251950979
aF-0.053961675614118576
aF-0.18615055084228516
aF-0.3765581548213959
aF-0.09253264218568802
aF-0.16765427589416504
aF-0.12060016393661499
aF-0.12444211542606354
aF-0.08820676058530807
aF-0.028333671391010284
aF-0.1388372927904129
aF-0.17170697450637817
aF-0.08462879061698914
aF-0.04258231818675995
aF-0.035033270716667175
aF-0.1811385154724121
aF-0.18758243322372437
aF-0.06512762606143951
aF-0.18506427109241486
aF-0.09326740354299545
aF-0.14470908045768738
aF-0.24786332249641418
aF-0.0892864465713501
aF-0.24773240089416504
aF-0.07043629139661789
aF-0.029862135648727417
aF-0.13211171329021454
aF-0.0056363963522017
aF-0.32817143201828003
aF-0.01872578263282776
aF-0.11517095565795898
aF-0.08403367549180984
aF-0.04664851725101471
aF-0.03139626979827881
aF-0.13351008296012878
aF-0.16375166177749634
aF-0.15477386116981506
aF-0.15263289213180542
aF0.1745886206626892
aF-0.17629677057266235
aF-0.10552391409873962
aF-0.12784931063652039
aF-0.179510235786438
aF-0.07170616090297699
aF0.06511369347572327
aF-0.03322280943393707
aF-0.15699449181556702
aF-0.09586543589830399
aF-0.16225433349609375
aF-0.07573128491640091
aF0.056046709418296814
aF-0.08704723417758942
aF-0.1740943193435669
aF0.07406575232744217
aF-0.08328678458929062
aF-0.15731020271778107
aF-0.08207415044307709
aF0.005519260186702013
aF-0.08714119344949722
aF-0.023029237985610962
aF-0.09956724941730499
aF-0.1289450079202652
aF-0.115641288459301
aF-0.05214431881904602
aF-0.021788204088807106
aF-0.13416141271591187
aF-0.014155521988868713
aF0.06728663295507431
aF-0.0792936161160469
aF-0.14902809262275696
aF0.07834843546152115
aF-0.037422992289066315
aF-0.18822933733463287
aF0.020424826070666313
aF-0.015436038374900818
aF-0.1713748574256897
aF0.039570290595293045
aF-0.028927220031619072
aF-0.03933853283524513
aF0.08730372041463852
aF-0.08721042424440384
aF-0.07773005962371826
aF0.014818568713963032
aF0.041283395141363144
aF-0.04995272308588028
aF-0.05579956993460655
aF-0.1050882339477539
aF-0.18432609736919403
aF-0.051607344299554825
aF-0.1758841574192047
aF0.003594139590859413
aF-0.11563603579998016
aF-0.18728165328502655
aF-0.0173792764544487
aF-0.057971544563770294
aF0.017825232818722725
aF-0.1040574386715889
aF-0.11653117090463638
aF-0.07609458267688751
aF-0.052094753831624985
aF-0.07270157337188721
aF-0.05104118585586548
aF-0.06274600327014923
aF-0.18423469364643097
aF-0.17019382119178772
aF-0.01404505968093872
aF-0.09857277572154999
aF-0.15414103865623474
aF-0.04141383618116379
aF-0.09521051496267319
aF-0.10807826370000839
aF-0.18545620143413544
aF-0.07224050909280777
aF-0.1692073494195938
aF-0.127690851688385
aF-0.04659803956747055
aF-0.17452387511730194
aF-0.08996327221393585
aF-0.08226007968187332
aF-0.021646417677402496
aF-0.1507052779197693
aF-0.11278180778026581
aF-0.09407062828540802
aF-0.11538541316986084
aF-0.04818079620599747
aF-0.1589331030845642
aF-0.06262204796075821
aF-0.162767231464386
aF0.05265643447637558
aF-0.024580851197242737
aF-0.15254579484462738
aF-0.12438492476940155
aF-0.1497706174850464
aF-0.1744908094406128
aF-0.0699254646897316
aF-0.031516991555690765
aF-0.1786838173866272
aF-0.05790630728006363
aF-0.17279475927352905
aF-0.06999176740646362
aF-0.10910078883171082
aF-0.123280368745327
aF-0.012705914676189423
aF-0.01896410435438156
aF-0.06330755352973938
aF-0.12248118966817856
aF-0.024035155773162842
aF-0.05708654224872589
aF-0.15357276797294617
aF-0.008416573517024517
aF-0.13693565130233765
aF-0.10749141871929169
aF0.15592312812805176
aF0.07057970017194748
aF0.029542775824666023
aF-0.07636534422636032
aF-0.15293583273887634
aF-0.11549627035856247
aF-0.15103429555892944
aF-0.1571379154920578
aF-0.06099025905132294
aF0.026165436953306198
aF0.01356466580182314
aF-0.014063255861401558
aF-0.0405382364988327
aF0.07369941473007202
aF-0.2674131989479065
aF-0.00484082056209445
aF-0.023103006184101105
aF-0.02251327969133854
aF0.0079398974776268
aF0.02165900729596615
aF0.060414645820856094
aF-0.026471583172678947
aF0.02632492035627365
aF0.03346643224358559
aF-0.0363616943359375
aF-0.071437768638134
aF-0.04711064696311951
aF0.07390490919351578
aF0.03786119073629379
aF0.07800925523042679
aF0.06273191422224045
aF0.0200397539883852
aF-0.01314911711961031
aF0.05650951340794563
aF-0.06086721643805504
aF0.055273670703172684
aF0.04574695974588394
aF-0.033288631588220596
aF-0.007973173633217812
aF-0.014965053647756577
aF-0.03493495658040047
aF0.0755450651049614
aF-0.06930561363697052
aF0.08155626058578491
aF-0.009010481648147106
aF0.04480014741420746
aF-0.41615021228790283
aF0.04418333247303963
aF-0.3892005980014801
aF0.08530750870704651
aF-0.05654562637209892
aF-0.013615164905786514
aF-0.4622495472431183
aF0.03381572291254997
aF-0.08260735124349594
aF0.01804709993302822
aF-0.0745161846280098
aF0.015793245285749435
aF-0.37713974714279175
aF0.02186337113380432
aF0.045849673449993134
aF-0.052269186824560165
aF0.014365484938025475
aF-0.14188450574874878
aF-0.0640333741903305
aF-0.06907107681035995
aF0.08500508964061737
aF0.007050827611237764
aF0.04173899441957474
aF-0.07737316936254501
aF0.0686781108379364
aF-0.06678506731987
aF-0.06357499212026596
aF-0.06816929578781128
aF-0.028641290962696075
aF-0.09584593027830124
aF0.07474992424249649
aF-0.009568457491695881
aF-0.0324530191719532
aF0.050737056881189346
aF0.07167787104845047
aF-0.08051415532827377
aF0.0033332984894514084
aF0.0472954697906971
aF-0.08199819177389145
aF0.0679316595196724
aF-0.013461538590490818
aF0.04129774123430252
aF0.03902650624513626
aF-0.066823311150074
aF-0.07662888616323471
aF0.059470247477293015
aF0.013785541988909245
aF0.06544087827205658
aF0.016180217266082764
aF0.07294196635484695
aF0.036934711039066315
aF-0.007354944013059139
aF-0.008563642390072346
aF0.07403717190027237
aF-0.07862090319395065
aF-0.03743327781558037
aF-0.08737661689519882
aF0.08084187656641006
aF0.039173346012830734
aF-0.07286425679922104
aF-0.0498742051422596
aF0.04995449259877205
aF0.01393814291805029
aF-0.014515061862766743
aF-0.09478319436311722
aF0.04099495708942413
aF-0.010032253339886665
aF0.07105376571416855
aF0.07907488197088242
aF-0.07988740503787994
aF-0.07659047096967697
aF0.02103370800614357
aF-0.01177215576171875
aF-0.06946230679750443
aF-0.0015738082583993673
aF0.051834169775247574
aF0.08034060150384903
aF0.07109158486127853
aF-0.011191952973604202
aF-0.04310021549463272
aF0.0743674784898758
aF-0.05680278688669205
aF-0.41505688428878784
aF-0.47801268100738525
aF0.024288002401590347
aF0.07666544616222382
aF0.01855897344648838
aF0.04050813987851143
aF0.037970829755067825
aF-0.053840842097997665
aF-0.03665228933095932
aF0.04580261558294296
aF-0.1408001333475113
aF-0.1779351681470871
aF-0.16739101707935333
aF-0.17763751745224
aF-0.14698870480060577
aF-0.1329052448272705
aF-0.08603447675704956
aF-0.03325187414884567
aF-0.1772434115409851
aF-0.1272415816783905
aF0.07810626178979874
aF-0.0140070840716362
aF-0.15412014722824097
aF-0.14388558268547058
aF-0.1497519314289093
aF-0.040859974920749664
aF-0.02559732273221016
aF0.07296667993068695
aF-0.03193381428718567
aF-0.08358592540025711
aF0.018347881734371185
aF-0.06969790905714035
aF-0.03134497255086899
aF-0.0504411906003952
aF-0.17999877035617828
aF-0.0962085947394371
aF-0.10118068009614944
aF-0.11736733466386795
aF-0.1473633348941803
aF-0.021493375301361084
aF-0.08703894168138504
aF-0.06957592070102692
aF-0.04231161251664162
aF0.08214064687490463
aF-0.04956201836466789
aF-0.021487347781658173
aF0.05904188007116318
aF-0.08077757060527802
aF-0.04195393994450569
aF-0.03218092769384384
aF-0.07781894505023956
aF-0.14280098676681519
aF0.061444658786058426
aF0.05173655226826668
aF-0.12000540643930435
aF-0.050049372017383575
aF-0.08305191993713379
aF-0.029091686010360718
aF0.016798436641693115
aF0.003948780242353678
aF-0.05303680896759033
aF-0.060213860124349594
aF-0.06710450351238251
aF-0.1528850495815277
aF-0.015949659049510956
aF-0.18587160110473633
aF-0.04976800084114075
aF-0.03719530254602432
aF-0.12703409790992737
aF-0.019914381206035614
aF-0.08781315386295319
aF-0.039311110973358154
aF-0.07266096025705338
aF-0.12615232169628143
aF-0.06491298973560333
aF-0.15348832309246063
aF-0.18060612678527832
aF-0.1676173210144043
aF-0.16483408212661743
aF-0.12209208309650421
aF-0.16651460528373718
aF-0.18777471780776978
aF-0.03787776827812195
aF-0.07263651490211487
aF-0.02969234436750412
aF-0.11288028955459595
aF-0.013282380998134613
aF-0.112191341817379
aF-0.13138452172279358
aF-0.13100187480449677
aF-0.017058469355106354
aF-0.17669761180877686
aF-0.16142065823078156
aF-0.10501796007156372
aF-0.015139102935791016
aF-0.10821247100830078
aF-0.08237744867801666
aF-0.11382532119750977
aF-0.18008776009082794
aF-0.11349155008792877
aF-0.08432183414697647
aF-0.03328496217727661
aF-0.1369793713092804
aF-0.06325564533472061
aF0.040913257747888565
aF-0.0990474671125412
aF-0.057427238672971725
aF-0.1326570212841034
aF-0.08166782557964325
aF-0.07778128236532211
aF-0.07219311594963074
aF-0.07054605334997177
aF-0.16327954828739166
aF-0.013044558465480804
aF-0.0768970176577568
aF-0.0940612256526947
aF-0.06844750046730042
aF-0.03462464362382889
aF-0.07726132869720459
aF-0.013663694262504578
aF-0.10853102803230286
aF-0.1016625389456749
aF-0.15775595605373383
aF-0.056539010256528854
aF-0.07494301348924637
aF-0.038072120398283005
aF-0.16058509051799774
aF-0.09554127603769302
aF-0.16255702078342438
aF-0.04395728558301926
aF0.02139689214527607
aF0.07242504507303238
aF-0.034771792590618134
aF-0.07088746130466461
aF-0.1547425538301468
aF-0.11011308431625366
aF-0.1374453604221344
aF-0.017359577119350433
aF-0.013231493532657623
aF-0.10707658529281616
aF-0.030620723962783813
aF-0.07669992744922638
aF-0.05934310704469681
aF-0.15350231528282166
aF-0.09547371417284012
aF-0.04254310578107834
aF-0.024296358227729797
aF-0.12891723215579987
aF0.03443426638841629
aF-0.0659237653017044
aF-0.176977276802063
aF-0.16025719046592712
aF-0.1673339605331421
aF-0.1410049945116043
aF0.009611192159354687
aF-0.1579798460006714
aF-0.11148064583539963
aF0.01076797116547823
aF0.0677018016576767
aF-0.022583290934562683
aF0.06832914054393768
aF0.05517333373427391
aF-0.16591793298721313
aF-0.1259135752916336
aF-0.10198974609375
aF-0.1592833697795868
aF-0.1762201189994812
aF-0.18386083841323853
aF0.004083945881575346
aF-0.1741098165512085
aF-0.0443544015288353
aF-0.03075089305639267
aF-0.18342764675617218
aF-0.1763540506362915
aF-0.18482446670532227
aF-0.1682744175195694
aF-0.17736250162124634
aF0.059948939830064774
aF-0.052554093301296234
aF-0.17422214150428772
aF-0.04073956981301308
aF-0.020838797092437744
aF-0.18050116300582886
aF-0.07698877900838852
aF-0.0574871189892292
aF-0.058990754187107086
aF-0.1313004195690155
aF-0.13271938264369965
aF-0.10082060843706131
aF-0.13728082180023193
aF-0.18830999732017517
aF0.0008204627665691078
aF-0.026429973542690277
aF-0.1428694725036621
aF-0.01269541122019291
aF-0.17306631803512573
aF-0.1069912239909172
aF-0.15376481413841248
aF-0.018998362123966217
aF-0.0507177896797657
aF-0.09485524892807007
aF-0.11700458079576492
aF-0.13783256709575653
aF-0.10520119965076447
aF-0.09102705121040344
aF-0.11349758505821228
aF-0.1528245508670807
aF-0.05211794748902321
aF0.08457128703594208
aF-0.18176870048046112
aF-0.10765134543180466
aF-0.024838946759700775
aF-0.12975922226905823
aF-0.03519415855407715
aF-0.06503773480653763
aF-0.18803420662879944
aF-0.11053720116615295
aF-0.056715045124292374
aF-0.16429942846298218
aF-0.1294126659631729
aF0.047770000994205475
aF-0.10283288359642029
aF-0.14384129643440247
aF-0.04159066081047058
aF-0.07046551257371902
aF-0.04492352530360222
aF-0.18197953701019287
aF-0.09329601377248764
aF-0.04844009503722191
aF-0.07187756150960922
aF-0.03376992046833038
aF-0.1534488946199417
aF0.036340732127428055
aF-0.14228788018226624
aF-0.1828477382659912
aF-0.023921117186546326
aF-0.05354379117488861
aF-0.02772725373506546
aF-0.17189614474773407
aF-0.018641844391822815
aF-0.12187816947698593
aF-0.1197783499956131
aF-0.04070283845067024
aF-0.016878828406333923
aF-0.1659550666809082
aF-0.12583310902118683
aF-0.11107711493968964
aF-0.1330026239156723
aF-0.09313547611236572
aF-0.06019444018602371
aF-0.02802303433418274
aF-0.06454557180404663
aF-0.12238860875368118
aF-0.10849475860595703
aF-0.14637653529644012
aF0.04819214344024658
aF-0.14896069467067719
aF-0.08192767202854156
aF-0.18655604124069214
aF8.797660484560765e-06
aF-0.031702637672424316
aF-0.1409018188714981
aF-0.06102599948644638
aF-0.1869235634803772
aF-0.1298520863056183
aF-0.04197224602103233
aF-0.15658321976661682
aF-0.07349114865064621
aF-0.05858439952135086
aF-0.07187844067811966
aF-0.1412264108657837
aF-0.016374073922634125
aF-0.08277022838592529
aF-0.022104382514953613
aF-0.21945595741271973
aF-0.18755996227264404
aF-0.028129786252975464
aF0.015005938708782196
aF-0.11477097123861313
aF-0.10071196407079697
aF-0.13397938013076782
aF-0.01679038256406784
aF-0.13572382926940918
aF0.02131117880344391
aF-0.1252650022506714
aF-0.016233816742897034
aF-0.0057791853323578835
aF-0.10178913176059723
aF-0.08647532761096954
aF0.06744329631328583
aF-0.014247074723243713
aF0.053609609603881836
aF-0.05793623626232147
aF-0.09933599084615707
aF-0.07142484188079834
aF-0.07466520369052887
aF-0.1611328125
aF-0.0655321478843689
aF-0.2146534025669098
aF-0.02499280497431755
aF-0.10569196939468384
aF-0.10496196150779724
aF-0.14219006896018982
aF-0.1419575959444046
aF0.04161138832569122
aF-0.059020671993494034
aF-0.08953332155942917
aF-0.10430405288934708
aF0.04725995659828186
aF0.12308819591999054
aF-0.1418340504169464
aF0.027307303622364998
aF-0.06557342410087585
aF-0.0420006699860096
aF-0.08297368139028549
aF-0.21718478202819824
aF-0.11522933840751648
aF-0.23650510609149933
aF-0.03690938651561737
aF0.09785090386867523
aF0.11446814239025116
aF-0.03035445511341095
aF-0.03866417706012726
aF-0.04028664529323578
aF-0.16683736443519592
aF-0.050479937344789505
aF-0.053113389760255814
aF0.03853613883256912
aF-0.029348008334636688
aF-0.17304101586341858
aF-0.13501746952533722
aF-0.13258354365825653
aF-0.11250966787338257
aF-0.07528097927570343
aF-0.17945700883865356
aF-0.12049901485443115
aF-0.17202365398406982
aF-0.12457197904586792
aF-0.07267436385154724
aF-0.1534416377544403
aF-0.13122983276844025
aF-0.10141834616661072
aF-0.10404235124588013
aF-0.03446812182664871
aF-0.11355771869421005
aF-0.12916217744350433
aF-0.1852559745311737
aF-0.14256514608860016
aF-0.0932643860578537
aF-0.18591053783893585
aF-0.16203294694423676
aF-0.14530707895755768
aF-0.05119846761226654
aF-0.1527135819196701
aF-0.11248759180307388
aF-0.053219981491565704
aF-0.13264021277427673
aF-0.07108691334724426
aF-0.04280645772814751
aF-0.1350654810667038
aF-0.08755262196063995
aF-0.05834827572107315
aF-0.08395855128765106
aF-0.10098468512296677
aF-0.19012656807899475
aF-0.07926628738641739
aF-0.07818698137998581
aF-0.02935672551393509
aF-0.14416517317295074
aF-0.1481989622116089
aF-0.16052936017513275
aF-0.10750053077936172
aF-0.16837118566036224
aF-0.17041458189487457
aF-0.04997310787439346
aF-0.12477120757102966
aF-0.08243702352046967
aF-0.04883308708667755
aF-0.0668775662779808
aF-0.16817587614059448
aF-0.15460367500782013
aF-0.1766168475151062
aF-0.08067996054887772
aF-0.13738170266151428
aF-0.08654647320508957
aF-0.04270630329847336
aF-0.06354355812072754
aF0.04700992628931999
aF-0.012612019665539265
aF-0.0720001757144928
aF-0.15116408467292786
aF-0.15613213181495667
aF-0.015793561935424805
aF-0.045234620571136475
aF-0.1727885603904724
aF-0.1487719863653183
aF-0.12932854890823364
aF-0.1234443262219429
aF-0.11851830780506134
aF-0.18554241955280304
aF-0.017733611166477203
aF-0.10727641731500626
aF-0.1308950036764145
aF-0.06727702170610428
aF0.010667556896805763
aF-0.14757998287677765
aF-0.10606636852025986
aF-0.11420416086912155
aF-0.14832910895347595
aF-0.13431383669376373
aF0.027586666867136955
aF-0.027040639892220497
aF-0.08899007737636566
aF-0.05473453551530838
aF0.03681517764925957
aF-0.05319468677043915
aF-0.017594046890735626
aF0.006161943078041077
aF-0.1151014119386673
aF-0.13167977333068848
aF-0.13197803497314453
aF-0.13862356543540955
aF-0.1679154485464096
aF-0.1041937917470932
aF-0.05969213321805
aF-0.03315996378660202
aF-0.07025361061096191
aF-0.06528638303279877
aF-0.032568588852882385
aF-0.13247144222259521
aF0.028687776997685432
aF0.005411422811448574
aF-0.15809598565101624
aF-0.04452596232295036
aF-0.046857643872499466
aF-0.04693663492798805
aF0.045730601996183395
aF0.028813013806939125
aF-0.032904766499996185
aF0.07100144773721695
aF-0.11713223904371262
aF-0.17697681486606598
aF-0.04033498466014862
aF0.04645230248570442
aF-0.12229600548744202
aF-0.05668574199080467
aF-0.0960073173046112
aF-0.10751642286777496
aF-0.16874051094055176
aF-0.15087613463401794
aF-0.02716958522796631
aF-0.05471484735608101
aF-0.11988819390535355
aF-0.05877475440502167
aF-0.018085002899169922
aF-0.05797114968299866
aF-0.040957678109407425
aF-0.09198319166898727
aF-0.18361467123031616
aF-0.027263440191745758
aF-0.16268429160118103
aF-0.01815801113843918
aF-0.11196742951869965
aF-0.02341865748167038
aF-0.1473999172449112
aF-0.10305780172348022
aF-0.011718317866325378
aF-0.1197693794965744
aF-0.024680733680725098
aF-0.022034890949726105
aF-0.14877572655677795
aF-0.18534526228904724
aF-0.16410765051841736
aF-0.10779615491628647
aF-0.1098562553524971
aF-0.17364028096199036
aF-0.06081791967153549
aF-0.0657557025551796
aF-0.16143758594989777
aF-0.12113428115844727
aF-0.15649540722370148
aF-0.17737555503845215
aF-0.14495880901813507
aF-0.11028988659381866
aF-0.08063533902168274
aF-0.054156072437763214
aF-0.06332765519618988
aF-0.12362853437662125
aF0.047359347343444824
aF-0.15630954504013062
aF-0.14248307049274445
aF-0.029620811343193054
aF-0.09272902458906174
aF-0.07844419777393341
aF-0.09750338643789291
aF-0.07223322242498398
aF-0.0937642827630043
aF-0.013569779694080353
aF-0.07642802596092224
aF-0.03868527710437775
aF-0.16711437702178955
aF-0.032811157405376434
aF-0.09204056113958359
aF-0.06407451629638672
aF-0.0898987203836441
aF-0.15432795882225037
aF-0.07142539322376251
aF-0.17302677035331726
aF-0.03782714903354645
aF0.04812014102935791
aF-0.1319553554058075
aF-0.08559364825487137
aF-0.094688780605793
aF-0.13224327564239502
aF-0.0014207189669832587
aF-0.0868348628282547
aF-0.011930152773857117
aF-0.12873110175132751
aF-0.057674188166856766
aF-0.15174336731433868
aF-0.06536673754453659
aF-0.018533755093812943
aF-0.12220332771539688
aF-0.05378470942378044
aF-0.10429209470748901
aF-0.01873263716697693
aF0.013574369251728058
aF-0.049106571823358536
aF-0.10999670624732971
aF-0.08619442582130432
aF-0.05812014266848564
aF-0.18349036574363708
aF-0.04584859311580658
aF-0.04032888263463974
aF-0.12988163530826569
aF-0.14275741577148438
aF-0.05745744705200195
aF-0.06382890045642853
aF-0.07672338932752609
aF-0.04840652272105217
aF-0.1520690619945526
aF0.01600663736462593
aF-0.0005227999063208699
aF-0.0803358256816864
aF0.08233945816755295
aF0.004353644791990519
aF-0.05268556624650955
aF-0.02101936936378479
aF-0.14546699821949005
aF-0.17352737486362457
aF-0.03109309822320938
aF-0.14061203598976135
aF-0.009317000396549702
aF-0.06956184655427933
aF-0.14345631003379822
aF0.036567121744155884
aF-0.0296386256814003
aF-0.019926108419895172
aF0.023295564576983452
aF0.06725697219371796
aF-0.17546290159225464
aF-0.013685857877135277
aF-0.14705634117126465
aF-0.14294180274009705
aF-0.08418254554271698
aF0.0020501588005572557
aF-0.0332767516374588
aF-0.00508082564920187
aF-0.09131542593240738
aF-0.07794000208377838
aF0.030770674347877502
aF0.028412912040948868
aF-0.039733726531267166
aF-0.1277981549501419
aF-0.028779298067092896
aF-0.15671536326408386
aF-0.1518951803445816
aF-0.0873873308300972
aF-0.06111582741141319
aF-0.15614502131938934
aF-0.06981813907623291
aF-0.1675848662853241
aF-0.1854304075241089
aF-0.05768778175115585
aF-0.147311732172966
aF-0.09087041765451431
aF-0.028670839965343475
aF-0.04174094647169113
aF-0.024632543325424194
aF-0.06274417787790298
aF-0.06652018427848816
aF-0.1543765664100647
aF-0.05323731154203415
aF-0.0961558148264885
aF-0.15317347645759583
aF-0.07325585186481476
aF-0.18611878156661987
aF-0.04345231130719185
aF-0.044558119028806686
aF-0.05438676476478577
aF-0.030601121485233307
aF-0.08244503289461136
aF-0.17857669293880463
aF-0.08671777695417404
aF-0.1768825650215149
aF-0.12917354702949524
aF-0.04272365942597389
aF-0.043353937566280365
aF-0.03845434635877609
aF-0.02371281385421753
aF-0.044779445976018906
aF-0.13184857368469238
aF-0.09071851521730423
aF-0.1562705934047699
aF-0.08253757655620575
aF-0.03007538616657257
aF-0.004983002319931984
aF-0.07027584314346313
aF-0.17780554294586182
aF-0.02334713190793991
aF-0.10430516302585602
aF-0.016478560864925385
aF-0.06758207082748413
aF-0.18011152744293213
aF-0.023354433476924896
aF-0.07808461785316467
aF-0.05576761066913605
aF-0.11004564166069031
aF-0.06820288300514221
aF-0.06913341581821442
aF-0.15962445735931396
aF-0.024416133761405945
aF-0.16937899589538574
aF-0.1395896077156067
aF-0.14997997879981995
aF-0.14330558478832245
aF-0.1707386076450348
aF0.03456002473831177
aF-0.09097450971603394
aF-0.01858580857515335
aF0.07312142103910446
aF0.11155255138874054
aF-0.026201032102108
aF-0.058390311896800995
aF-0.09471507370471954
aF-0.07404755055904388
aF-0.08114604651927948
aF-0.07253380864858627
aF-0.07948309928178787
aF0.018680915236473083
aF-0.15205104649066925
aF-0.050576046109199524
aF-0.07465414702892303
aF-0.03414790332317352
aF-0.17528119683265686
aF-0.08299573510885239
aF-0.1093539223074913
aF-0.07382234930992126
aF-0.059274062514305115
aF-0.1539779007434845
aF-0.10509520769119263
aF-0.12523457407951355
aF-0.14662635326385498
aF-0.12604589760303497
aF-0.07800623774528503
aF-0.16555741429328918
aF-0.07763392478227615
aF0.01013277005404234
aF-0.05716022476553917
aF-0.06522253900766373
aF-0.046157389879226685
aF-0.08737191557884216
aF-0.05476560816168785
aF-0.026160184293985367
aF-0.16137726604938507
aF-0.06114669516682625
aF-0.13370643556118011
aF-0.13787129521369934
aF-0.04001438245177269
aF-0.10655917972326279
aF-0.1582440286874771
aF-0.15015560388565063
aF-0.027421824634075165
aF-0.05704360827803612
aF-0.023206256330013275
aF-0.023110665380954742
aF-0.05944203585386276
aF-0.05257311835885048
aF-0.030634805560112
aF0.03571367263793945
aF-0.14459316432476044
aF-0.07729694247245789
aF-0.09727256000041962
aF-0.10983368009328842
aF-0.049254342913627625
aF-0.0719008818268776
aF-0.04121284931898117
aF-0.17757770419120789
aF-0.1405431479215622
aF-0.13585978746414185
aF-0.11613107472658157
aF-0.018797092139720917
aF-0.07675674557685852
aF-0.01824866235256195
aF-0.18151427805423737
aF-0.12196861952543259
aF-0.010723932646214962
aF-0.023754842579364777
aF-0.12660808861255646
aF-0.065815769135952
aF-0.0818457379937172
aF-0.005537857301533222
aF-0.1305772066116333
aF-0.11782857775688171
aF-0.15627579391002655
aF-0.13583329319953918
aF-0.0616304948925972
aF-0.014809727668762207
aF-0.13988082110881805
aF-0.08653947710990906
aF0.03619915246963501
aF-0.15288794040679932
aF-0.1844613254070282
aF-0.0714164674282074
aF-0.15451441705226898
aF-0.052182529121637344
aF-0.17534883320331573
aF-0.17280513048171997
aF-0.06744024902582169
aF-0.1726255714893341
aF-0.01637711375951767
aF-0.03380049020051956
aF-0.06005370244383812
aF-0.0930292084813118
aF-0.09782867133617401
aF-0.13603734970092773
aF-0.1623430699110031
aF-0.1797197461128235
aF-0.18180915713310242
aF-0.1002582386136055
aF-0.052844561636447906
aF-0.10612506419420242
aF-0.16674943268299103
aF-0.11921857297420502
aF0.07480791956186295
aF-0.16698786616325378
aF-0.10291868448257446
aF-0.15983861684799194
aF-0.089708611369133
aF-0.11141180992126465
aF-0.08675409108400345
aF-0.04363179951906204
aF-0.07859243452548981
aF-0.07869421690702438
aF-0.04788999259471893
aF-0.1379345953464508
aF-0.16878685355186462
aF-0.13089734315872192
aF-0.18247172236442566
aF-0.12621232867240906
aF-0.05686156079173088
aF-0.18786028027534485
aF-0.09734370559453964
aF-0.041415583342313766
aF-0.05094629526138306
aF-0.17830908298492432
aF-0.11633450537919998
aF-0.14918023347854614
aF-0.17265163362026215
aF-0.14090140163898468
aF-0.18154215812683105
aF-0.0020340143237262964
aF-0.011933108791708946
aF-0.06047569215297699
aF-0.14022964239120483
aF-0.162344828248024
aF-0.05987275764346123
aF-0.07601162046194077
aF-0.09531418979167938
aF-0.1617020070552826
aF-0.016279183328151703
aF-0.1765543520450592
aF-0.08210820704698563
aF-0.10115145891904831
aF-0.14029178023338318
aF-0.04957711324095726
aF-0.12093116343021393
aF-0.08393555879592896
aF-0.014029019512236118
aF-0.14801611006259918
aF-0.09489818662405014
aF-0.15304848551750183
aF-0.01662883162498474
aF-0.09071283787488937
aF-0.14062783122062683
aF0.047159500420093536
aF-0.12663105130195618
aF-0.08290738612413406
aF-0.07164070755243301
aF-0.1625863015651703
aF0.07040496170520782
aF0.004156065173447132
aF-0.10914881527423859
aF-0.17077627778053284
aF-0.08463409543037415
aF-0.12780804932117462
aF-0.16613787412643433
aF-0.021501436829566956
aF-0.020527631044387817
aF-0.092320516705513
aF-0.1073993369936943
aF0.027090614661574364
aF-0.1837836652994156
aF-0.1691855490207672
aF-0.18348023295402527
aF-0.09488414227962494
aF-0.06636908650398254
aF0.03596309944987297
aF-0.061697475612163544
aF-0.04552705958485603
aF-0.07292716950178146
aF-0.13730928301811218
aF-0.06658034026622772
aF-0.03510487824678421
aF-0.0610022097826004
aF-0.17488443851470947
aF-0.08849363029003143
aF-0.037157587707042694
aF-0.1789490282535553
aF-0.0858859047293663
aF-0.13736045360565186
aF-0.035379134118556976
aF-0.054226186126470566
aF-0.1268400251865387
aF-0.08469541370868683
aF-0.11723162233829498
aF-0.15301835536956787
aF-0.08144612610340118
aF-0.1861324906349182
aF-0.008212264627218246
aF-0.18451406061649323
aF-0.10721952468156815
aF-0.054460957646369934
aF-0.1475559026002884
aF-0.09342581033706665
aF-0.14125165343284607
aF-0.14372186362743378
aF-0.07155114412307739
aF-0.039802435785532
aF-0.05408386141061783
aF-0.1400604546070099
aF-0.12433739006519318
aF-0.09571120887994766
aF-0.14641216397285461
aF-0.048368021845817566
aF-0.09522666037082672
aF-0.16605323553085327
aF-0.07781201601028442
aF-0.015497513115406036
aF-0.16899196803569794
aF-0.06707404553890228
aF-0.15736174583435059
aF-0.0640435516834259
aF-0.1544903963804245
aF-0.039053380489349365
aF-0.07538081705570221
aF-0.1421298384666443
aF-0.13057845830917358
aF-0.13523529469966888
aF-0.04940233379602432
aF-0.12016929686069489
aF-0.03971799835562706
aF0.05426314100623131
aF-0.05970952659845352
aF-0.18815027177333832
aF-0.1346571147441864
aF-0.1411525309085846
aF-0.17368194460868835
aF-0.12849053740501404
aF-0.041287612169981
aF-0.025604069232940674
aF-0.04155317321419716
aF-0.12027201801538467
aF-0.1202632263302803
aF-0.11601541191339493
aF-0.17835387587547302
aF-0.04453905671834946
aF-0.09534846246242523
aF-0.06591552495956421
aF-0.09947261959314346
aF-0.06575275957584381
aF-0.031102031469345093
aF-0.1827252209186554
aF0.06246408447623253
aF-0.18500152230262756
aF-0.05884866788983345
aF-0.07549107819795609
aF-0.012245230376720428
aF-0.03691280633211136
aF0.045310452580451965
aF-0.027602888643741608
aF-0.07531295716762543
aF-0.09351589530706406
aF-0.0910569429397583
aF-0.17887142300605774
aF0.000929865229409188
aF-0.13105902075767517
aF-0.05542704835534096
aF-0.09736312925815582
aF-0.04200546070933342
aF0.1407269984483719
aF-0.11880424618721008
aF-0.11296314001083374
aF-0.020803384482860565
aF-0.058547601103782654
aF-0.15062151849269867
aF0.006810496095567942
aF-0.14700789749622345
aF-0.032220520079135895
aF-0.1246698647737503
aF-0.12028329074382782
aF-0.1521853506565094
aF0.03133838251233101
aF0.0584237203001976
aF-0.027049578726291656
aF-0.029071709141135216
aF-0.04373671114444733
aF-0.09545744210481644
aF-0.0670565515756607
aF-0.07645408064126968
aF-0.1631653606891632
aF-0.176952064037323
aF-0.09641912579536438
aF-0.027384325861930847
aF-0.04600178822875023
aF-0.13723991811275482
aF0.02282715030014515
aF-0.12546153366565704
aF-0.047758713364601135
aF-0.030631475150585175
aF-0.12459217011928558
aF-0.03743693232536316
aF0.03643178939819336
aF-0.04765342175960541
aF-0.019202060997486115
aF-0.04647775739431381
aF-0.17009148001670837
aF-0.1721741259098053
aF0.06722867488861084
aF-0.0611015148460865
aF-0.11422178894281387
aF0.07581527531147003
aF-0.10270091891288757
aF-0.1669810712337494
aF-0.07628406584262848
aF-0.024552354589104652
aF-0.051139116287231445
aF-0.09057478606700897
aF-0.17169779539108276
aF0.1286584585905075
aF-0.1742933690547943
aF-0.09182754904031754
aF0.03227126970887184
aF-0.07437536865472794
aF-0.04672610014677048
aF-0.05512073263525963
aF-0.12736210227012634
aF0.04996831715106964
aF-0.13053886592388153
aF-0.11179943382740021
aF-0.1161142885684967
aF-0.0712800994515419
aF-0.17619633674621582
aF-0.02052215486764908
aF-0.1830136477947235
aF-0.10427392274141312
aF-0.022138066589832306
aF-0.1736719310283661
aF-0.17793801426887512
aF-0.04774869978427887
aF-0.07628956437110901
aF-0.08014962077140808
aF-0.08015327155590057
aF-0.14201855659484863
aF-0.15329605340957642
aF-0.05177643895149231
aF-0.13936032354831696
aF-0.07044968008995056
aF-0.051435571163892746
aF-0.032732367515563965
aF-0.07594653218984604
aF-0.013500168919563293
aF-0.0769149661064148
aF-0.11392178386449814
aF-0.07359205186367035
aF-0.016580887138843536
aF-0.05184737592935562
aF-0.0745236724615097
aF-0.06094770133495331
aF-0.09276969730854034
aF-0.0369865782558918
aF-0.014947839081287384
aF-0.048585016280412674
aF-0.0416550487279892
aF-0.04586528614163399
aF-0.03875437378883362
aF-0.06257261335849762
aF-0.09559577703475952
aF-0.12751680612564087
aF-0.08738245069980621
aF-0.05491458997130394
aF-0.02689036726951599
aF-0.15331989526748657
aF-0.05580604076385498
aF-0.13952980935573578
aF-0.14932861924171448
aF-0.0933663621544838
aF-0.14154574275016785
aF-0.17270319163799286
aF-0.012918494641780853
aF-0.021429717540740967
aF0.07715092599391937
aF-0.17438817024230957
aF-0.13943499326705933
aF0.12277888506650925
aF0.1752261221408844
aF-0.017750289291143417
aF-0.05755871161818504
aF-0.04226311296224594
aF-0.1367843598127365
aF-0.03434572368860245
aF-0.046698518097400665
aF-0.09650781005620956
aF-0.016540508717298508
aF-0.18468549847602844
aF-0.21868306398391724
aF-0.08679699152708054
aF-0.1642896831035614
aF-0.3121461272239685
aF-0.0879945158958435
aF-0.0163089781999588
aF-0.03308464586734772
aF-0.10195410996675491
aF-0.09467820823192596
aF0.07423720508813858
aF-0.023521631956100464
aF-0.11458730697631836
aF-0.10278458893299103
aF-0.13176555931568146
aF-0.028918631374835968
aF-0.036103256046772
aF0.8909867405891418
aF-0.1578594446182251
aF-0.024604013189673424
aF-0.05411074683070183
aF-0.06554355472326279
aF-0.04662604629993439
aF0.017240572720766068
aF-0.00837506353855133
aF-0.04488448053598404
aF0.013843923807144165
aF-0.1873575747013092
aF-0.1742558479309082
aF-0.16274797916412354
aF-0.04164052754640579
aF-0.09742047637701035
aF-0.13586756587028503
aF-0.020903781056404114
aF-0.17355188727378845
aF-0.17913059890270233
aF-0.20317429304122925
aF0.5588704347610474
aF-0.3296170234680176
aF0.006194065324962139
aF-0.26592814922332764
aF0.015599220991134644
aF-1.0687235593795776
aF0.6158903241157532
aF-0.04174458608031273
aF0.035690706223249435
aF-0.20060855150222778
aF-0.1031949445605278
aF-1.0310732126235962
aF0.39954787492752075
aF-0.1666734218597412
aF-0.21087609231472015
aF-0.11461681127548218
aF-0.2004583328962326
aF-0.08396640419960022
aF-0.16439855098724365
aF0.02029174193739891
aF-0.025613414123654366
aF-0.028649255633354187
aF-0.10826902091503143
aF-0.03783882409334183
aF0.07221589237451553
aF-0.18169769644737244
aF-0.07565359771251678
aF-0.1880892515182495
aF-0.0933518335223198
aF-0.05174393206834793
aF-0.1983635127544403
aF-0.14437545835971832
aF-0.1838165521621704
aF-0.044123873114585876
aF-0.1778642237186432
aF-0.05632691830396652
aF-0.03740076720714569
aF-0.16111275553703308
aF-0.13893191516399384
aF-0.18485644459724426
aF-0.09842163324356079
aF-0.15632781386375427
aF-0.16885966062545776
aF-0.07030339539051056
aF-0.05178676173090935
aF-0.11098873615264893
aF-0.2131742238998413
aF-0.09366130083799362
aF-0.18962615728378296
aF-0.0933869406580925
aF-0.13532587885856628
aF-0.0762682557106018
aF-0.05049392208456993
aF-0.12296736240386963
aF-0.15355746448040009
aF-0.048060737550258636
aF-0.13664335012435913
aF0.08179087191820145
aF-0.04639548063278198
aF-0.1459086388349533
aF-0.08741196244955063
aF-0.06716541945934296
aF-0.07737171649932861
aF-0.1194169744849205
aF-0.17328065633773804
aF-0.06218864023685455
aF-0.19287341833114624
aF-0.1611631214618683
aF-0.1251099854707718
aF-0.10434746742248535
aF-0.047622330486774445
aF-0.16131412982940674
aF-0.10427796095609665
aF-0.07799573242664337
aF-0.06135717034339905
aF-0.13616397976875305
aF-0.17845624685287476
aF-0.0388672798871994
aF-0.043620895594358444
aF-0.13034671545028687
aF0.07954152673482895
aF0.015764489769935608
aF-0.4004073143005371
aF0.5764973759651184
aF-0.08576375991106033
aF-0.1298973709344864
aF-0.05382679030299187
aF-0.05112398415803909
aF-0.18226143717765808
aF-0.04478996992111206
aF0.028388911858201027
aF0.029127418994903564
aF-0.02922443300485611
aF-0.03694023936986923
aF-0.01810780167579651
aF-0.1927901804447174
aF-0.08644497394561768
aF-0.05556466802954674
aF-0.10627490282058716
aF-0.17152804136276245
aF-0.12680214643478394
aF-0.042222168296575546
aF0.02438163012266159
aF-0.09623859077692032
aF-0.09936726093292236
aF-0.06814301013946533
aF-0.08442792296409607
aF0.07803396135568619
aF-0.19183412194252014
aF-0.03602522611618042
aF0.03498946130275726
aF-0.08178987354040146
aF-0.24727848172187805
aF-0.08806928992271423
aF-0.016720950603485107
aF0.01312342844903469
aF0.0048800185322761536
aF-0.05850633233785629
aF-0.11305023729801178
aF-0.1251569241285324
aF-0.06363468617200851
aF-0.050125084817409515
aF-0.13184140622615814
aF0.2872054874897003
aF0.001117115025408566
aF-0.03698505461215973
aF-0.1288507580757141
aF-0.8021237850189209
aF-1.1221134662628174
aF-0.34360647201538086
aF0.05568474531173706
aF-0.11359623074531555
aF-0.0891968309879303
aF-2.670375347137451
aF-1.2017308473587036
aF-0.07297202944755554
aF-0.0862656980752945
aF-0.12290783226490021
aF-0.04741206765174866
aF-1.8649590015411377
aF-1.3128951787948608
aF-0.1699463129043579
aF-0.11750226467847824
aF-0.0334736630320549
aF-0.29996731877326965
aF-0.11194128543138504
aF0.001887589693069458
aF0.036357518285512924
aF-0.05659689009189606
aF-0.05474648252129555
aF-0.15320947766304016
aF-0.15506097674369812
aF0.04077932983636856
aF-0.17753487825393677
aF-0.0411284901201725
aF-0.13400086760520935
aF-0.1623968482017517
aF-0.03938910737633705
aF-0.10040212422609329
aF-0.15180179476737976
aF-0.16507458686828613
aF-0.08993206173181534
aF-0.06397473812103271
aF-0.1346900463104248
aF-0.17850011587142944
aF-0.12210147827863693
aF-0.13777504861354828
aF-0.10650467872619629
aF-0.13299359381198883
aF-0.16573050618171692
aF-0.0615202970802784
aF-0.10640410333871841
aF-0.03637539595365524
aF-0.17709453403949738
aF0.0015869960188865662
aF-0.06823885440826416
aF-0.039425719529390335
aF-0.08764047920703888
aF-0.09951941668987274
aF-0.16367706656455994
aF-0.09563282132148743
aF-0.11381246149539948
aF-0.1239738017320633
aF-0.12277331948280334
aF-0.14992502331733704
aF0.03805909305810928
aF-0.060849595814943314
aF-0.12215423583984375
aF-0.14646494388580322
aF-0.13267159461975098
aF-0.05901502072811127
aF-0.038685839623212814
aF-0.19267690181732178
aF-0.1820043921470642
aF-0.05600757524371147
aF-0.037678249180316925
aF-0.1188531443476677
aF-0.033930785953998566
aF-0.07152227312326431
aF-0.1574920117855072
aF-0.1645611822605133
aF-0.07762908935546875
aF-0.14857375621795654
aF-0.1772979199886322
aF-0.09615682810544968
aF-0.017528057098388672
aF0.033402785658836365
aF-0.12783516943454742
aF-0.02749980054795742
aF-0.6639852523803711
aF-0.70834881067276
aF-0.9932183623313904
aF0.055646684020757675
aF-0.008896023035049438
aF-0.22424238920211792
aF-0.026805691421031952
aF-0.06330911815166473
aF-0.1538608819246292
aF0.05727590620517731
aF-0.02796817757189274
aF-0.16806675493717194
aF-0.1799483299255371
aF-0.11996744573116302
aF0.006063629873096943
aF-0.1679624617099762
aF-0.08787636458873749
aF-0.07857411354780197
aF-0.15205679833889008
aF-0.048408884555101395
aF0.020496554672718048
aF-0.07864707708358765
aF-0.0604640394449234
aF-0.15673287212848663
aF-0.13032443821430206
aF-0.08456297963857651
aF-0.019722357392311096
aF-0.05891576409339905
aF-0.07964320480823517
aF-0.08275290578603745
aF0.08553831279277802
aF-0.0755566731095314
aF0.05858559161424637
aF-0.053427256643772125
aF-0.03453756123781204
aF0.08388134837150574
aF-0.05690725892782211
aF-0.09256702661514282
aF-0.18733426928520203
aF-0.14940856397151947
aF-0.04020814225077629
aF-0.08738146722316742
aF-0.18690383434295654
aF0.009535009041428566
aF-0.11838642507791519
aF-0.021812476217746735
aF-0.06041959673166275
aF-0.037878893315792084
aF-0.016749083995819092
aF0.06983163207769394
aF-0.1533520221710205
aF0.025173788890242577
aF-0.022188805043697357
aF-0.08353203535079956
aF-0.1812259554862976
aF0.06601668894290924
aF-0.185041606426239
aF-0.09327223896980286
aF-0.08260256052017212
aF-0.13352066278457642
aF-0.1569715142250061
aF0.04220184311270714
aF-0.15429729223251343
aF-0.03178322687745094
aF0.08548590540885925
aF0.06652557849884033
aF-0.06801906228065491
aF0.030734127387404442
aF-0.12677931785583496
aF-0.1816026270389557
aF-0.12777367234230042
aF0.049670055508613586
aF-0.09482135623693466
aF-0.06482584774494171
aF-0.15101034939289093
aF-0.16738811135292053
aF-0.03569420427083969
aF-0.0730740875005722
aF-0.17438943684101105
aF-0.1485304981470108
aF-0.1425805687904358
aF-0.08669092506170273
aF-0.015069417655467987
aF-0.16756144165992737
aF-0.15532460808753967
aF-0.0573250986635685
aF-0.038369692862033844
aF-0.06981974840164185
aF-0.079835444688797
aF-0.012601293623447418
aF-0.16033168137073517
aF-0.04653404280543327
aF-0.1780935525894165
aF-0.17242632806301117
aF-0.1469450145959854
aF-0.0670359805226326
aF-0.03919575735926628
aF-0.07246296852827072
aF-0.10979099571704865
aF-0.061704203486442566
aF-0.04002213105559349
aF-0.08170637488365173
aF-0.14787158370018005
aF-0.1844390481710434
aF-0.07929382473230362
aF-0.16057097911834717
aF-0.08314677327871323
aF-0.14949887990951538
aF-0.03051937371492386
aF-0.15138886868953705
aF-0.043185681104660034
aF-0.08732437342405319
aF-0.0651877224445343
aF-0.08487577736377716
aF-0.1678672581911087
aF-0.026181675493717194
aF-0.12018551677465439
aF-0.03499532490968704
aF-0.08139781653881073
aF-0.1701953411102295
aF-0.021786607801914215
aF-0.08033308386802673
aF-0.10646814852952957
aF-0.1023445576429367
aF-0.16882562637329102
aF0.08183710277080536
aF-0.0897064208984375
aF0.026397112756967545
aF-0.1557592898607254
aF-0.08110913634300232
aF-0.0287410169839859
aF-0.07334184646606445
aF-0.10823021084070206
aF-0.1542244255542755
aF-0.061195168644189835
aF-0.04528256505727768
aF-0.10199537873268127
aF0.0006721637910231948
aF-0.1515706330537796
aF-0.03329944610595703
aF-0.041498392820358276
aF-0.03441457450389862
aF-0.13316786289215088
aF-0.11136236041784286
aF-0.1642453521490097
aF-0.09567224234342575
aF-0.02926994115114212
aF-0.1681048572063446
aF-0.0862857773900032
aF-0.15303482115268707
aF-0.11815737932920456
aF-0.11786873638629913
aF-0.08123661577701569
aF-0.1510234773159027
aF-0.009914003312587738
aF-0.08446694165468216
aF-0.14768989384174347
aF-0.08134391158819199
aF-0.0883316844701767
aF-0.09378273040056229
aF-0.08651204407215118
aF-0.05119457468390465
aF-0.10364498198032379
aF-0.020789317786693573
aF-0.15700671076774597
aF-0.047100894153118134
aF-0.16983310878276825
aF-0.1170954778790474
aF-0.06686859577894211
aF-0.10028897225856781
aF-0.12494107335805893
aF0.01139098685234785
aF-0.13301756978034973
aF-0.05757017806172371
aF-0.009266342967748642
aF0.003708221949636936
aF-0.10926473140716553
aF-0.07959511876106262
aF-0.17475970089435577
aF-0.18386736512184143
aF0.0019948671106249094
aF0.0438125841319561
aF-0.05172485113143921
aF-0.07640942186117172
aF-0.09323728084564209
aF-0.09852418303489685
aF-0.040025003254413605
aF-0.0163132231682539
aF-0.14551100134849548
aF-0.18834656476974487
aF-0.1322278380393982
aF-0.09448988735675812
aF-0.12900316715240479
aF-0.14364592730998993
aF-0.02819659933447838
aF-0.03755776584148407
aF-0.046595603227615356
aF-0.06515819579362869
aF-0.1574893593788147
aF0.052635688334703445
aF-0.058670852333307266
aF-0.04472869634628296
aF-0.07847673445940018
aF-0.16980575025081635
aF-0.022623196244239807
aF-0.04601248353719711
aF-0.061796657741069794
aF-0.13287857174873352
aF-0.07845985144376755
aF-0.13936445116996765
aF-0.07607004046440125
aF-0.07374481856822968
aF-0.06950465589761734
aF-0.027604080736637115
aF-0.08271235227584839
aF-0.11921034008264542
aF-0.013573989272117615
aF-0.17480100691318512
aF-0.06669800728559494
aF-0.12393531203269958
aF-0.15186241269111633
aF-0.03938416391611099
aF-0.16663938760757446
aF-0.07992903888225555
aF-0.031181663274765015
aF-0.06696942448616028
aF-0.16177108883857727
aF-0.0786949023604393
aF-0.057835258543491364
aF-0.030098043382167816
aF-0.04641089588403702
aF-0.05577574670314789
aF0.0635494515299797
aF-0.09265261888504028
aF-0.1392895132303238
aF-0.028971955180168152
aF-0.1242438480257988
aF-0.18793857097625732
aF-0.17053420841693878
aF-0.10634133219718933
aF-0.07144838571548462
aF-0.1667342633008957
aF-0.15693356096744537
aF-0.08209703862667084
aF-0.13854394853115082
aF-0.1505793035030365
aF-0.17055852711200714
aF-0.06261955201625824
aF-0.015321582555770874
aF-0.09828897565603256
aF-0.033042654395103455
aF-0.05126819759607315
aF-0.12077323347330093
aF0.08340087532997131
aF-0.17678342759609222
aF-0.09225881844758987
aF-0.11438222229480743
aF-0.05358877778053284
aF-0.014033832587301731
aF0.05074374005198479
aF-0.12893220782279968
aF-0.09225320816040039
aF-0.10949010401964188
aF-0.07520198822021484
aF-0.03343682736158371
aF0.04631950333714485
aF-0.08896109461784363
aF-0.10331541299819946
aF-0.09493605047464371
aF-0.07723312079906464
aF-0.06041251868009567
aF-0.18573039770126343
aF-0.029639743268489838
aF-0.17232197523117065
aF-0.13976028561592102
aF-0.11477762460708618
aF-0.05220753327012062
aF-0.12631838023662567
aF-0.1851387619972229
aF-0.12350337952375412
aF-0.02402966469526291
aF-0.09900814294815063
aF-0.03630344569683075
aF-0.035170700401067734
aF-0.06006510183215141
aF0.0801381841301918
aF-0.055600568652153015
aF-0.1133686751127243
aF-0.010115337558090687
aF0.015531717799603939
aF-0.17957703769207
aF-0.018218152225017548
aF-0.07345978915691376
aF-0.061480678617954254
aF-0.15732789039611816
aF-0.08321531116962433
aF-0.08671995252370834
aF-0.05055108666419983
aF-0.10978874564170837
aF0.03689318895339966
aF-0.03360961377620697
aF-0.06030977889895439
aF0.027343537658452988
aF-0.03140604868531227
aF-0.06919746100902557
aF-0.027005916461348534
aF-0.08536537736654282
aF-0.016052894294261932
aF0.02799997664988041
aF-0.08536045253276825
aF-0.031479835510253906
aF-0.02399599179625511
aF-0.06631368398666382
aF-0.1151788979768753
aF0.05995892360806465
aF-0.05003798007965088
aF-0.10257318615913391
aF-0.055605385452508926
aF-0.0900009274482727
aF-0.010661948472261429
aF-0.06269729137420654
aF-0.10698708146810532
aF-0.012473939917981625
aF-0.034179992973804474
aF-0.018953464925289154
aF-0.04132978618144989
aF-0.15447595715522766
aF0.011135481297969818
aF-0.1779012680053711
aF-0.10078372806310654
aF-0.09938707947731018
aF-0.18049073219299316
aF-0.12596532702445984
aF-0.10611477494239807
aF-0.0574716292321682
aF-0.18590892851352692
aF-0.09966158121824265
aF-0.02513030171394348
aF-0.16626185178756714
aF-0.1588173806667328
aF-0.014687113463878632
aF-0.14998218417167664
aF-0.13224324584007263
aF-0.1399214118719101
aF-0.15015080571174622
aF-0.1230185255408287
aF-0.024247147142887115
aF-0.03943534940481186
aF-0.10129578411579132
aF-0.07522642612457275
aF-0.09263087809085846
aF-0.05573897063732147
aF-0.11878538131713867
aF-0.03573514521121979
aF-0.11109966039657593
aF-0.028775200247764587
aF-0.01952209323644638
aF-0.11060014367103577
aF-0.1779577136039734
aF-0.02754061669111252
aF0.0019239443354308605
aF-0.1371767371892929
aF-0.16076387465000153
aF-0.0243755504488945
aF-0.08672726154327393
aF-0.18089476227760315
aF-0.0885210633277893
aF-0.1394054889678955
aF-0.12168630212545395
aF-0.13694880902767181
aF-0.02292172610759735
aF-0.04433998465538025
aF-0.047798238694667816
aF-0.15840908885002136
aF-0.0806976705789566
aF-0.18594294786453247
aF-0.12123224884271622
aF-0.024805165827274323
aF-0.1627054214477539
aF-0.15113583207130432
aF-0.01938004046678543
aF0.08814093470573425
aF-0.18754547834396362
aF0.05152028053998947
aF-0.006281726062297821
aF0.05502281337976456
aF-0.04561037942767143
aF0.05272930487990379
aF-0.05901069939136505
aF-0.05340651050209999
aF-0.09107751399278641
aF-0.09435147792100906
aF-0.17571470141410828
aF-0.08118418604135513
aF-0.041033316403627396
aF-0.017679953947663307
aF0.040621068328619
aF-0.07025673985481262
aF0.03889547660946846
aF0.023157702758908272
aF0.027570610865950584
aF-0.00032192360959015787
aF0.02750687673687935
aF-0.06037101894617081
aF0.005211822222918272
aF0.03841850534081459
aF-0.059992771595716476
aF-0.012691589072346687
aF-0.06144975870847702
aF-0.029039714485406876
aF-0.04091113433241844
aF-0.06734691560268402
aF0.05562988296151161
aF0.011405057273805141
aF0.03165905177593231
aF-0.05261252820491791
aF-0.0417586974799633
aF-0.0571681410074234
aF-0.0007022226345725358
aF0.059722378849983215
aF-0.016645370051264763
aF0.07877244800329208
aF-0.0005675580468960106
aF0.03538154810667038
aF-0.048866238445043564
aF-0.00556624261662364
aF0.0006057264399714768
aF-0.0757049173116684
aF-0.0841217041015625
aF-0.004377095028758049
aF0.0168923269957304
aF0.03097480535507202
aF-0.04691721126437187
aF-0.07807164639234543
aF0.026888538151979446
aF0.04008261859416962
aF-0.07566072046756744
aF-0.02560015581548214
aF-0.008411850780248642
aF0.010271458886563778
aF0.004157930612564087
aF-0.03933967649936676
aF-0.07929300516843796
aF-0.01884301006793976
aF0.08813702315092087
aF-0.019386950880289078
aF-0.0819171592593193
aF-0.04646140709519386
aF-0.06603903323411942
aF0.04528163745999336
aF0.02079794742166996
aF0.07641322165727615
aF0.059891507029533386
aF-0.02438628301024437
aF-0.07787895947694778
aF0.04506281763315201
aF-0.023737657815217972
aF0.028532937169075012
aF0.006546482443809509
aF-0.07990513741970062
aF-0.051754746586084366
aF-0.07623478770256042
aF-0.06322478502988815
aF-0.07601166516542435
aF-0.0449809804558754
aF-0.0655173733830452
aF0.08740789443254471
aF0.06925050169229507
aF0.05747485160827637
aF0.01720639318227768
aF0.0670693889260292
aF0.028622709214687347
aF-0.00790324155241251
aF-0.027123982086777687
aF-0.030836565420031548
aF-0.019097018986940384
aF-0.05329345166683197
aF0.04904157668352127
aF-0.05078985169529915
aF0.08094629645347595
aF0.04516544193029404
aF-0.07131876796483994
aF0.05721805617213249
aF-0.08608677238225937
aF0.023038165643811226
aF0.05701999366283417
aF0.08699700236320496
aF0.028934990987181664
aF0.07591090351343155
aF-0.06211023032665253
aF-0.08106150478124619
aF0.05236141383647919
aF0.03772636130452156
aF0.06420368701219559
aF0.039818719029426575
aF-0.0736074149608612
aF-0.0017234677216038108
aF-0.0665152296423912
aF0.0797019675374031
aF0.0290041696280241
aF-0.07696839421987534
aF0.038343340158462524
aF-0.012209130451083183
aF-0.05901560187339783
aF-0.004736468195915222
aF0.03620341420173645
aF-0.032456036657094955
aF0.07716874778270721
aF-0.06703412532806396
aF0.07936198264360428
aF0.002886821748688817
aF0.06151540204882622
aF-0.04647718369960785
aF-0.060949280858039856
aF0.04814900830388069
aF-0.018719658255577087
aF-0.03550582751631737
aF0.00846107304096222
aF-0.010524713434278965
aF-0.05717288702726364
aF0.05888468027114868
aF0.0051101394928991795
aF-0.01870059221982956
aF-0.17919808626174927
aF-0.16659748554229736
aF-0.18265515565872192
aF-0.04295249655842781
aF-0.07599140703678131
aF-0.14284954965114594
aF-0.09544574469327927
aF-0.06517808884382248
aF-0.1488465666770935
aF0.06339193880558014
aF-0.18146248161792755
aF-0.07496931403875351
aF-0.09477850794792175
aF-0.13974103331565857
aF-0.1846495121717453
aF0.010025063529610634
aF-0.01635199785232544
aF-0.024489931762218475
aF-0.08189177513122559
aF0.03204509988427162
aF-0.040172964334487915
aF0.07471302896738052
aF-0.011336581781506538
aF-0.12223432958126068
aF-0.04134118929505348
aF-0.05063832178711891
aF-0.13391229510307312
aF-0.09001017361879349
aF-0.1548892706632614
aF0.0012162871425971389
aF-0.1510515809059143
aF-0.11311809718608856
aF0.03945351019501686
aF-0.11314933747053146
aF-0.029731541872024536
aF-0.16148695349693298
aF-0.1281641125679016
aF-0.0599781796336174
aF0.006334553938359022
aF-0.1318555474281311
aF-0.13114458322525024
aF-0.030932389199733734
aF-0.1533677726984024
aF-0.1714382767677307
aF0.0748147964477539
aF-0.16805727779865265
aF-0.07431172579526901
aF-0.021856315433979034
aF-0.13290098309516907
aF-0.08495789766311646
aF-0.020337974652647972
aF-0.08461280167102814
aF-0.0011065948056057096
aF-0.11859776079654694
aF-0.01652301847934723
aF0.06412772089242935
aF-0.12393032759428024
aF-0.18712100386619568
aF-0.06939911097288132
aF-0.1474999338388443
aF-0.04478271305561066
aF-0.08432355523109436
aF-0.1020345687866211
aF-0.08736585825681686
aF-0.029183626174926758
aF-0.17613612115383148
aF-0.08712519705295563
aF-0.13246311247348785
aF-0.12194464355707169
aF-0.09982702136039734
aF-0.10698814690113068
aF-0.08736799657344818
aF-0.011836133897304535
aF-0.1827755868434906
aF-0.13584645092487335
aF-0.08870574831962585
aF-0.11427952349185944
aF-0.12090277671813965
aF-0.03528458625078201
aF-0.15794014930725098
aF-0.13932034373283386
aF-0.17728161811828613
aF-0.11924149096012115
aF-0.11647967994213104
aF-0.0361899808049202
aF-0.1396847516298294
aF-0.07021517306566238
aF-0.043680716305971146
aF-0.11079870164394379
aF-0.05887031927704811
aF-0.09807023406028748
aF-0.04647267982363701
aF-0.04001960530877113
aF0.010054083541035652
aF-0.1096191257238388
aF-0.06143376603722572
aF-0.17696018517017365
aF-0.06962950527667999
aF-0.10856053978204727
aF-0.1423625648021698
aF-0.016511835157871246
aF-0.10295751690864563
aF-0.18184176087379456
aF-0.11039075255393982
aF-0.03863637149333954
aF-0.1813337802886963
aF-0.024873286485671997
aF-0.14520804584026337
aF-0.023584872484207153
aF-0.1367187649011612
aF-0.07949620485305786
aF-0.1241481602191925
aF-0.17144450545310974
aF-0.1156882494688034
aF0.010390256531536579
aF-0.11402331292629242
aF0.019565192982554436
aF-0.028374016284942627
aF-0.14583836495876312
aF-0.06247398257255554
aF0.05314010754227638
aF-0.12145714461803436
aF-0.12212115526199341
aF-0.07788378745317459
aF-0.18015070259571075
aF-0.12242848426103592
aF0.07734356075525284
aF-0.22056379914283752
aF-0.149894580245018
aF-0.19051849842071533
aF-0.137954443693161
aF-0.02112477272748947
aF-0.11770585179328918
aF-0.05447807535529137
aF-0.10675951838493347
aF-0.10866855084896088
aF-0.06649763137102127
aF0.06834298372268677
aF-0.13192977011203766
aF-0.0800941064953804
aF-0.10340144485235214
aF-0.1234741285443306
aF-0.05886111035943031
aF-0.026156144216656685
aF-0.10182105004787445
aF-0.0214078351855278
aF0.026288216933608055
aF-0.03213142231106758
aF-0.17976966500282288
aF-0.04045330360531807
aF-0.05474768951535225
aF-0.130956768989563
aF-0.1522749662399292
aF-0.15771082043647766
aF-0.08466915786266327
aF-0.08428338170051575
aF0.1552572399377823
aF0.019945334643125534
aF-0.1376660317182541
aF-0.184775710105896
aF-0.031740378588438034
aF-0.07831496000289917
aF-0.09515447914600372
aF-1.3053560256958008
aF-0.18441517651081085
aF-0.14546899497509003
aF0.0007314548711292446
aF0.03071127086877823
aF-0.17512190341949463
aF-1.6683272123336792
aF-0.26978081464767456
aF-0.026094458997249603
aF-0.0049504851922392845
aF-0.15389154851436615
aF-0.054906174540519714
aF-1.3625718355178833
aF-0.14476780593395233
aF-0.15430748462677002
aF-0.09155774116516113
aF-0.19068336486816406
aF-0.19730672240257263
aF-0.025576721876859665
aF-0.0631103441119194
aF-0.05750790610909462
aF-0.0440458208322525
aF-0.14792996644973755
aF-0.07132098823785782
aF-0.1616799235343933
aF0.0017110283952206373
aF-0.1728096604347229
aF-0.04096447303891182
aF-0.11926418542861938
aF-0.12303221225738525
aF-0.020727328956127167
aF-0.06379185616970062
aF-0.026569955050945282
aF-0.05400930717587471
aF-0.10775929689407349
aF-0.1787303388118744
aF-0.17067039012908936
aF-0.0310545414686203
aF-0.1089121401309967
aF-0.13467539846897125
aF-0.029594287276268005
aF-0.16398152709007263
aF-0.16392681002616882
aF-0.1478385329246521
aF-0.12123812735080719
aF-0.018432579934597015
aF-0.12348449975252151
aF-0.09427444636821747
aF-0.05201605707406998
aF-0.07630543410778046
aF-0.024226881563663483
aF-0.13126958906650543
aF-0.13331884145736694
aF-0.149618998169899
aF-0.06964623183012009
aF-0.12574386596679688
aF-0.18952573835849762
aF-0.1493554264307022
aF0.06466581672430038
aF-0.06393682211637497
aF-0.1760036200284958
aF-0.18126249313354492
aF-0.05131354555487633
aF-0.17355114221572876
aF-0.10477367788553238
aF-0.12160225212574005
aF-0.18421843647956848
aF-0.09155210852622986
aF-0.19098371267318726
aF-0.030081428587436676
aF-0.11059292405843735
aF-0.08550677448511124
aF-0.09977114945650101
aF-0.029150240123271942
aF-0.18737000226974487
aF-0.07634369283914566
aF-0.09580308943986893
aF-0.03137216717004776
aF-0.035914964973926544
aF0.06487522274255753
aF-0.17269743978977203
aF0.10592058300971985
aF-0.3712065815925598
aF-0.41736096143722534
aF-0.19573546946048737
aF-0.08005652576684952
aF-0.23539361357688904
aF0.010803453624248505
aF-0.18606919050216675
aF-0.07257074117660522
aF-0.03742723912000656
aF-0.07146719098091125
aF-0.045855358242988586
aF-0.04569917172193527
aF-0.013042554259300232
aF-0.17001304030418396
aF-0.13112346827983856
aF-0.029567144811153412
aF-0.04452165216207504
aF-0.13185188174247742
aF-0.18139904737472534
aF-0.0784318819642067
aF0.011616581119596958
aF-0.1446893811225891
aF-0.11767962574958801
aF-0.05743204802274704
aF-0.18385867774486542
aF-0.0879608616232872
aF0.06603491306304932
aF-0.013596585020422935
aF-0.09600058197975159
aF0.012560497038066387
aF-0.061659421771764755
aF-0.029749490320682526
aF0.06034793332219124
aF-0.023246925324201584
aF-0.05161784589290619
aF-0.10261094570159912
aF-0.17537468671798706
aF-0.03621528297662735
aF-0.011887960135936737
aF-0.15701287984848022
aF-0.05693622678518295
aF-0.17391644418239594
aF-0.06364120543003082
aF0.0061013707891106606
aF-0.1174246221780777
aF-0.042146675288677216
aF0.05178889259696007
aF0.08384722471237183
aF-0.09444601833820343
aF0.07834329456090927
aF-0.15830960869789124
aF-0.09170658886432648
aF0.040867723524570465
aF0.08310822397470474
aF-0.12401827424764633
aF0.03300819173455238
aF-0.1447891891002655
aF-0.030435234308242798
aF-0.08814051002264023
aF0.016178380697965622
aF-0.06661982834339142
aF-0.013756632804870605
aF-0.11041334271430969
aF0.09259361028671265
aF-0.026020541787147522
aF-0.03910607844591141
aF-0.015120472759008408
aF-0.06403860449790955
aF-0.0156748965382576
aF-0.12260886281728745
aF-0.0376274399459362
aF-0.07481716573238373
aF-0.1270437091588974
aF-0.05240148305892944
aF-0.08830828964710236
aF-0.1017138808965683
aF-0.175888329744339
aF-0.15921136736869812
aF-0.07501211762428284
aF-0.04433426633477211
aF-0.05720223858952522
aF-0.10472124814987183
aF-0.08909796178340912
aF-0.01712147891521454
aF-0.033907435834407806
aF-0.08417188376188278
aF-0.08689472079277039
aF-0.06976179033517838
aF-0.11981070041656494
aF-0.07226209342479706
aF-0.05722079426050186
aF-0.17977029085159302
aF-0.1674417406320572
aF-0.09681634604930878
aF-0.07882123440504074
aF-0.08382274210453033
aF-0.13138249516487122
aF-0.15151682496070862
aF-0.03619174659252167
aF-0.08990056812763214
aF-0.11623368412256241
aF-0.08113113045692444
aF-0.03332294523715973
aF-0.049016788601875305
aF-0.07715677469968796
aF-0.0853506475687027
aF-0.16044633090496063
aF-0.0754891186952591
aF-0.17507553100585938
aF-0.16724899411201477
aF-0.024006813764572144
aF-0.16898071765899658
aF-0.10693485289812088
aF-0.06042337790131569
aF-0.16144618391990662
aF-0.03873869404196739
aF-0.03355081379413605
aF-0.026822581887245178
aF-0.1075657457113266
aF-0.07021800428628922
aF-0.14254826307296753
aF-0.07543891668319702
aF-0.06179635226726532
aF-0.08902978897094727
aF-0.0738624632358551
aF-0.023937895894050598
aF-0.13003474473953247
aF-0.09461711347103119
aF-0.024401381611824036
aF-0.049985121935606
aF0.01987837627530098
aF-0.02225930616259575
aF-0.08547022938728333
aF-0.153737872838974
aF-0.07675785571336746
aF-0.1593543142080307
aF-0.09938491880893707
aF-0.012682368978857994
aF-0.022737905383110046
aF-0.15265892446041107
aF-0.032861918210983276
aF-0.13197088241577148
aF-0.11830571293830872
aF-0.09187488257884979
aF-0.16567203402519226
aF-0.0164949968457222
aF-0.0367787629365921
aF-0.17142686247825623
aF0.08828683197498322
aF-0.051701802760362625
aF-0.17251089215278625
aF-0.0706460177898407
aF-0.13277976214885712
aF-0.16701805591583252
aF-0.01753377914428711
aF-0.0010047282557934523
aF-0.04591580107808113
aF-0.011269398964941502
aF-0.06291787326335907
aF-0.0619204007089138
aF0.025928400456905365
aF0.0347307026386261
aF-0.06627622991800308
aF-0.16070425510406494
aF-0.1293758898973465
aF-0.01686379313468933
aF-0.05041909217834473
aF-0.07678703218698502
aF-0.06987188756465912
aF-0.16101494431495667
aF-0.1651047319173813
aF-0.021975267678499222
aF-0.04205971956253052
aF-0.17645874619483948
aF0.051604434847831726
aF0.007501774933189154
aF-0.181083083152771
aF-0.0698639377951622
aF-0.01733309030532837
aF-0.03372614085674286
aF-0.03137226030230522
aF-0.06914102286100388
aF-0.09498386085033417
aF-0.04816190525889397
aF-0.0663185566663742
aF-0.12218649685382843
aF0.02777053788304329
aF-0.033379003405570984
aF-0.10351686179637909
aF-0.027764059603214264
aF-0.14382842183113098
aF-0.09837161749601364
aF-0.11597898602485657
aF-0.10510805994272232
aF-0.038488563150167465
aF-0.06393358111381531
aF-0.10048352181911469
aF-0.02220042794942856
aF-0.1320190578699112
aF-0.007400356233119965
aF-0.10205215960741043
aF-0.12197227030992508
aF-0.07347410917282104
aF-0.14711499214172363
aF-0.025483518838882446
aF-0.04285161569714546
aF-0.16289004683494568
aF-0.12253627926111221
aF-0.08698110282421112
aF-0.14151298999786377
aF-0.08349302411079407
aF-0.09122680872678757
aF-0.10901730507612228
aF-0.13108611106872559
aF-0.01801227778196335
aF-0.1560668796300888
aF-0.18345105648040771
aF-0.14800862967967987
aF-0.036420390009880066
aF-0.11467446386814117
aF-0.17747709155082703
aF-0.12748141586780548
aF-0.12339283525943756
aF-0.015553340315818787
aF-0.12052668631076813
aF-0.050855886191129684
aF-0.08505038172006607
aF-0.09768082946538925
aF-0.16012758016586304
aF-0.015163704752922058
aF-0.10366200655698776
aF-0.12585845589637756
aF-0.023658467456698418
aF-0.0378127284348011
aF-0.0213993638753891
aF-0.022329047322273254
aF-0.07945671677589417
aF-0.04246889054775238
aF-0.043802469968795776
aF-0.13618135452270508
aF-0.08668866753578186
aF-0.063954196870327
aF-0.1712614744901657
aF-0.16404211521148682
aF-0.08036178350448608
aF-0.14690744876861572
aF-0.03414981812238693
aF-0.041011348366737366
aF-0.03703499585390091
aF-0.02587936818599701
aF-0.07866902649402618
aF-0.011773206293582916
aF-0.03074229508638382
aF0.025500638410449028
aF-0.042792174965143204
aF-0.17998018860816956
aF-0.17777091264724731
aF-0.13562841713428497
aF-0.07008538395166397
aF0.0010229558683931828
aF-0.06118527054786682
aF-0.07978778332471848
aF-0.07222437858581543
aF-0.10483499616384506
aF-0.029466286301612854
aF0.005763435270637274
aF-0.17074379324913025
aF-0.12029726058244705
aF-0.06227560341358185
aF-0.015258647501468658
aF0.0460442490875721
aF-0.18668118119239807
aF-0.05182447284460068
aF-0.021295733749866486
aF-0.15060341358184814
aF-0.13071314990520477
aF-0.035258639603853226
aF-0.1098397895693779
aF-0.02115500718355179
aF-0.05882536992430687
aF-0.16166839003562927
aF-0.12182503938674927
aF0.08504634350538254
aF-0.010075978003442287
aF-0.14627674221992493
aF-0.0814768373966217
aF0.07340329140424728
aF-0.11092075705528259
aF-0.06683793663978577
aF0.04368666559457779
aF-0.15377508103847504
aF-0.08762891590595245
aF-0.012761816382408142
aF-0.02302640676498413
aF-0.18697017431259155
aF-0.03957294672727585
aF0.049235522747039795
aF-0.0649656429886818
aF-0.13280200958251953
aF0.01108013466000557
aF-0.027231186628341675
aF-0.1467832624912262
aF-0.052439700812101364
aF-0.055786143988370895
aF-0.12518420815467834
aF-0.03355186805129051
aF-0.17509788274765015
aF-0.1597255915403366
aF-0.08584468066692352
aF-0.023628950119018555
aF-0.04692909121513367
aF0.06896593421697617
aF-0.10434077680110931
aF-0.07571844756603241
aF-0.0527116097509861
aF0.056511808186769485
aF-0.08930166065692902
aF-0.05141473934054375
aF-0.027919486165046692
aF0.027543559670448303
aF-0.12238797545433044
aF-0.058764997869729996
aF0.009935955516994
aF-0.16595731675624847
aF-0.10640890896320343
aF-0.056469645351171494
aF-0.08624165505170822
aF-0.03221479058265686
aF-0.11581157147884369
aF-0.1273619830608368
aF-0.0311301127076149
aF-0.02339956909418106
aF-0.04287660866975784
aF-0.12128488719463348
aF-0.029834657907485962
aF-0.021007172763347626
aF-0.07576638460159302
aF-0.1667986810207367
aF-0.10294239223003387
aF-0.07694166898727417
aF-0.18380984663963318
aF-0.08536215126514435
aF-0.013304829597473145
aF-0.0344395637512207
aF-0.10635685175657272
aF-0.10233408212661743
aF-0.1609204113483429
aF-0.027126073837280273
aF-0.10607399046421051
aF-0.153395414352417
aF-0.07780583202838898
aF-0.06476631760597229
aF-0.060312774032354355
aF-0.12683559954166412
aF-0.039688076823949814
aF-0.048825256526470184
aF-0.13093462586402893
aF-0.16560965776443481
aF-0.1855592131614685
aF-0.09269319474697113
aF-0.08076467365026474
aF-0.05822131782770157
aF-0.14228995144367218
aF-0.14239929616451263
aF-0.05025400593876839
aF-0.16272476315498352
aF-0.03151264786720276
aF-0.044513821601867676
aF-0.09077079594135284
aF-0.1845444142818451
aF-0.04189549386501312
aF-0.09447421133518219
aF-0.09202242642641068
aF-0.028867267072200775
aF-0.07567407190799713
aF-0.1782151460647583
aF-0.0556359700858593
aF-0.04218478873372078
aF-0.048451948910951614
aF-0.023873239755630493
aF-0.11737311631441116
aF0.08772511035203934
aF-0.16127298772335052
aF-0.01918066293001175
aF0.04797641187906265
aF0.05615231394767761
aF-0.020609358325600624
aF-0.04394904896616936
aF-0.15090355277061462
aF-0.0875391736626625
aF-0.09011231362819672
aF-0.09704068303108215
aF-0.17125660181045532
aF0.01571592688560486
aF-0.1229676827788353
aF-0.10388077050447464
aF-0.04223073273897171
aF-0.1800321340560913
aF-0.03705371916294098
aF-0.16802245378494263
aF-0.09828393161296844
aF-0.06434401869773865
aF-0.06310570985078812
aF-0.06220943480730057
aF-0.024478893727064133
aF-0.12519603967666626
aF-0.036740779876708984
aF-0.15669068694114685
aF-0.11450788378715515
aF-0.14608167111873627
aF-0.05254320427775383
aF0.06377869844436646
aF-0.04509079456329346
aF-9.512259566690773e-05
aF0.06682325154542923
aF-0.1986246109008789
aF-0.07457978278398514
aF-0.08277435600757599
aF-0.006251692771911621
aF-0.11631383001804352
aF-0.12909992039203644
aF-0.3747899830341339
aF-0.029698483645915985
aF-0.15271081030368805
aF-0.0031633256003260612
aF-0.14084413647651672
aF-0.18326342105865479
aF0.08166033029556274
aF-0.09573519229888916
aF-0.06655874103307724
aF-0.3460288643836975
aF0.018710197880864143
aF-0.08436521142721176
aF-0.044999860227108
aF-0.10702868551015854
aF-0.15608537197113037
aF-0.37046611309051514
aF-0.044681210070848465
aF-0.10176058113574982
aF-0.006142084952443838
aF-0.024289697408676147
aF-0.0732145607471466
aF-0.30751603841781616
aF0.07072077691555023
aF-0.3701566755771637
aF-0.0631135106086731
aF-0.09569291770458221
aF0.0816933810710907
aF-0.3312501311302185
aF-0.1537586897611618
aF-0.05939510837197304
aF-0.09384715557098389
aF-0.055418774485588074
aF-0.18330758810043335
aF-0.11218668520450592
aF0.031137526035308838
aF-0.19050970673561096
aF-0.15128451585769653
aF-0.09922774136066437
aF-0.06092243269085884
aF-0.015158340334892273
aF-0.08172781765460968
aF-0.1585278958082199
aF-0.12170638144016266
aF-0.13282471895217896
aF-0.1181415468454361
aF-0.027798369526863098
aF-0.13002243638038635
aF-0.16222499310970306
aF-0.17462436854839325
aF-0.14520952105522156
aF-0.105848528444767
aF-0.15765292942523956
aF-0.09647797048091888
aF-0.04265063256025314
aF-0.16775479912757874
aF-0.1779118925333023
aF-0.1564282327890396
aF-0.14160841703414917
aF-0.015497006475925446
aF-0.15391770005226135
aF-0.07322551310062408
aF-0.04523678123950958
aF-0.08766017854213715
aF-0.15862004458904266
aF-0.03787139803171158
aF-0.05232875794172287
aF-0.08729426562786102
aF-0.012486375868320465
aF-0.13415339589118958
aF-0.0664462298154831
aF-0.07082311809062958
aF-0.04342298582196236
aF-0.04571979492902756
aF-0.11705148220062256
aF-0.04852069914340973
aF-0.10960632562637329
aF-0.07587876170873642
aF-0.15317100286483765
aF-0.053703077137470245
aF-0.05454679951071739
aF-0.12131836265325546
aF-0.018477313220500946
aF-0.07984119653701782
aF-0.05631449446082115
aF-0.08800213038921356
aF-0.07526379078626633
aF-0.06478053331375122
aF-0.15725554525852203
aF-0.04447674751281738
aF-0.18884706497192383
aF-0.1772325187921524
aF0.0022098198533058167
aF-0.048745959997177124
aF-0.01314065046608448
aF0.04992182180285454
aF-0.07960493117570877
aF-0.11203968524932861
aF-0.022530831396579742
aF-0.03703783452510834
aF-0.16713722050189972
aF0.05139239504933357
aF-0.10633283853530884
aF-0.17403122782707214
aF-0.16207937896251678
aF-0.03814253956079483
aF-0.14700165390968323
aF-0.037394292652606964
aF-0.058990515768527985
aF-0.09868405759334564
aF-0.062354907393455505
aF-0.09890540689229965
aF-0.048708897083997726
aF-0.031206704676151276
aF-0.017567060887813568
aF-0.04680432379245758
aF-0.10744961351156235
aF-0.12218105792999268
aF-0.027595769613981247
aF0.045450419187545776
aF-0.12827742099761963
aF-0.013536126352846622
aF0.020896410569548607
aF-0.1580265909433365
aF-0.04080408811569214
aF0.07059697061777115
aF-0.16599410772323608
aF-0.07114216685295105
aF-0.12936371564865112
aF-0.08642922341823578
aF-0.14479896426200867
aF-0.05760854110121727
aF-0.013662784360349178
aF-0.12115351855754852
aF-0.14148445427417755
aF-0.011796314269304276
aF-0.1762923300266266
aF-0.12553346157073975
aF0.08378522098064423
aF0.03612813726067543
aF-0.08030057698488235
aF0.05458127707242966
aF-0.12218338996171951
aF-0.0356583371758461
aF-0.002210022881627083
aF-0.07331922650337219
aF-0.1761738657951355
aF0.07818111032247543
aF-0.1292116940021515
aF-0.018940895795822144
aF-0.06500238925218582
aF-0.053853657096624374
aF-0.11628038436174393
aF-0.17275743186473846
aF-0.09463236480951309
aF-0.02265731245279312
aF-0.1542593538761139
aF-0.1476561427116394
aF0.07748527824878693
aF-0.06904839724302292
aF-0.11892526596784592
aF-0.08797679841518402
aF-0.056871697306632996
aF0.07916867733001709
aF-0.1129261702299118
aF-0.06589020788669586
aF-0.025248177349567413
aF-0.0763000100851059
aF-0.017353281378746033
aF-0.06323834508657455
aF-0.03517284244298935
aF-0.057704608887434006
aF-0.12407457828521729
aF-0.06174341216683388
aF-0.057550836354494095
aF-0.057079799473285675
aF-0.17530791461467743
aF-0.08536309003829956
aF-0.10024496167898178
aF-0.09202150255441666
aF-0.027967073023319244
aF-0.08987724035978317
aF-0.06460456550121307
aF-0.157948836684227
aF-0.06297877430915833
aF-0.08720742911100388
aF-0.14302697777748108
aF-0.15879176557064056
aF-0.06901343166828156
aF-0.03293527662754059
aF-0.13291135430335999
aF-0.14558753371238708
aF-0.08945202827453613
aF-0.1473904550075531
aF-0.15208427608013153
aF-0.033837780356407166
aF-0.049401696771383286
aF-0.13769829273223877
aF-0.11569259315729141
aF-0.022971294820308685
aF-0.1266232579946518
aF-0.022114604711532593
aF-0.08980345726013184
aF-0.16145184636116028
aF-0.03442901372909546
aF-0.08721042424440384
aF-0.041556745767593384
aF-0.16048483550548553
aF-0.027666501700878143
aF-0.15259221196174622
aF-0.16942353546619415
aF-0.1079612597823143
aF-0.03239418566226959
aF-0.04538920521736145
aF-0.029438041150569916
aF-0.041385501623153687
aF-0.058001983910799026
aF-0.03213503956794739
aF-0.09249090403318405
aF-0.06490542739629745
aF-0.06699946522712708
aF-0.10288611799478531
aF-0.07969557493925095
aF0.037031352519989014
aF-0.1398676335811615
aF-0.037445999681949615
aF-0.18775895237922668
aF-0.02598585933446884
aF-0.11021623015403748
aF0.056853700429201126
aF-0.11756936460733414
aF-0.18643003702163696
aF-0.03887459263205528
aF-0.10510703176259995
aF-0.16569557785987854
aF-0.09909291565418243
aF-0.16348481178283691
aF-0.1531539410352707
aF-0.03563486039638519
aF-0.16792097687721252
aF0.07768850773572922
aF-0.11271513998508453
aF-0.10788040608167648
aF-0.07975496351718903
aF-0.08896507322788239
aF-0.1079791858792305
aF-0.03683161735534668
aF-0.1216837465763092
aF-0.11106187850236893
aF-0.04241761192679405
aF0.009649107232689857
aF-0.014597110450267792
aF0.04030463844537735
aF-0.08113809674978256
aF-0.03846927732229233
aF-0.12410657852888107
aF-0.10468249768018723
aF-0.12355022132396698
aF-0.06534811854362488
aF-0.06243519484996796
aF-0.04574655741453171
aF-0.0811096578836441
aF-0.17031168937683105
aF0.18812260031700134
aF-0.18880680203437805
aF-0.17160549759864807
aF-0.10811255127191544
aF-0.02062327414751053
aF-0.1404096484184265
aF-0.06170421466231346
aF-0.15631236135959625
aF-0.07877233624458313
aF-0.03353732079267502
aF-0.1287856101989746
aF-0.06764905899763107
aF-0.14050596952438354
aF-0.07906617969274521
aF-0.12068557739257812
aF-0.1621066778898239
aF-0.170826256275177
aF-0.140566885471344
aF-0.11487644910812378
aF-0.14130370318889618
aF-0.004294373095035553
aF-0.10140012949705124
aF-0.03349979966878891
aF0.02380310744047165
aF-0.08333562314510345
aF-0.07150815427303314
aF-0.07424326986074448
aF-0.15371744334697723
aF-0.038675300776958466
aF-0.1907515972852707
aF-0.040549758821725845
aF-0.18244609236717224
aF-0.16788549721240997
aF-0.11657808721065521
aF-0.11074810475111008
aF-0.12688447535037994
aF-0.12522660195827484
aF-0.28741177916526794
aF-0.05125832557678223
aF-0.13894671201705933
aF-0.12314758449792862
aF-0.1783783733844757
aF-0.06980116665363312
aF-0.11741790920495987
aF-0.14585575461387634
aF-0.12848198413848877
aF-0.13347108662128448
aF-0.03784145042300224
aF-0.11464835703372955
aF-0.15775106847286224
aF-0.10081950575113297
aF-0.08457265794277191
aF-0.029673710465431213
aF-0.07218710333108902
aF-0.16695860028266907
aF-0.02811414562165737
aF-0.03933617100119591
aF-0.15344639122486115
aF-0.07553017139434814
aF-0.14811064302921295
aF-0.05918734893202782
aF-0.08576571941375732
aF-0.14270956814289093
aF-0.10719946026802063
aF-0.10956306010484695
aF-0.17131105065345764
aF-0.10484731197357178
aF-0.03642775118350983
aF-0.025551453232765198
aF-0.1724884808063507
aF-0.040342070162296295
aF-0.06513816118240356
aF-0.01998136192560196
aF-0.14806418120861053
aF-0.023181386291980743
aF-0.16620412468910217
aF-0.14584094285964966
aF-0.16503307223320007
aF-0.022007711231708527
aF-0.05486742779612541
aF-0.15678563714027405
aF-0.11307237297296524
aF-0.1821216195821762
aF-0.1818746030330658
aF0.1355389952659607
aF-0.1096406802535057
aF-0.09322851896286011
aF-0.05306915566325188
aF-0.0070513589307665825
aF0.0039359573274850845
aF-0.11353619396686554
aF-0.03327967971563339
aF-0.07349606603384018
aF-0.04925397410988808
aF0.08413316309452057
aF-0.15741898119449615
aF-0.06475983560085297
aF-0.01460004597902298
aF-0.17110076546669006
aF-0.07376009225845337
aF-0.05340432748198509
aF-0.02566586434841156
aF-0.16582617163658142
aF-0.10234108567237854
aF-0.03768039494752884
aF0.04517574980854988
aF-0.06048145890235901
aF-0.17971111834049225
aF-0.06250497698783875
aF-0.12660804390907288
aF-0.04593481123447418
aF-0.0223479513078928
aF-0.001694630947895348
aF-0.09847339987754822
aF0.03168778866529465
aF0.03214741870760918
aF-0.1848735809326172
aF-0.0757153257727623
aF0.06902282685041428
aF-0.14421650767326355
aF-0.08626320213079453
aF-0.024705052375793457
aF-0.12280651926994324
aF-0.1619519144296646
aF-0.02268938720226288
aF0.02674616314470768
aF-0.1806287169456482
aF-0.06103033572435379
aF-0.07020538300275803
aF-0.1473386287689209
aF-0.10448917001485825
aF0.03493935242295265
aF-0.032870735973119736
aF-0.09186296164989471
aF-0.01707307994365692
aF-0.08224287629127502
aF-0.07343030720949173
aF0.017937133088707924
aF0.01900535635650158
aF-0.12579894065856934
aF-0.05987333878874779
aF-0.08020345866680145
aF-0.1138787567615509
aF-0.057179369032382965
aF0.024475712329149246
aF-0.0646103098988533
aF-0.0235261470079422
aF-0.06127997487783432
aF-0.05009348690509796
aF-0.1652151495218277
aF-0.11010528355836868
aF-0.004494344815611839
aF-0.036833345890045166
aF-0.11307542771100998
aF-0.10067446529865265
aF-0.055178459733724594
aF-0.0643637627363205
aF-0.1395462453365326
aF-0.0711880475282669
aF-0.13234297931194305
aF-0.09112685918807983
aF-0.14072202146053314
aF-0.1642131507396698
aF-0.01799638569355011
aF-0.09303848445415497
aF-0.07765153795480728
aF-0.06572068482637405
aF-0.14588698744773865
aF-0.12287800014019012
aF-0.06968037784099579
aF-0.11856699734926224
aF-0.03466106206178665
aF-0.139814555644989
aF-0.11932754516601562
aF-0.11288745701313019
aF-0.05591743811964989
aF-0.1649840921163559
aF-0.05956444516777992
aF-0.14936821162700653
aF-0.03301301598548889
aF-0.10539461672306061
aF-0.1596165895462036
aF-0.10080859065055847
aF-0.17879989743232727
aF-0.06287270784378052
aF-0.15542437136173248
aF-0.14605385065078735
aF-0.16390490531921387
aF-0.1413593888282776
aF0.07592419534921646
aF-0.15626414120197296
aF-0.0759354829788208
aF-0.04948582500219345
aF-0.16263753175735474
aF-0.027073219418525696
aF-0.04137345403432846
aF-0.16336026787757874
aF-0.13683681190013885
aF-0.12329474091529846
aF-0.13659724593162537
aF-0.08226614445447922
aF-0.14618167281150818
aF-0.0343707874417305
aF-0.1470509022474289
aF-0.02560877799987793
aF-0.03550311177968979
aF-0.18664643168449402
aF-0.04553063586354256
aF-0.03491438180208206
aF-0.0658969134092331
aF0.06656371057033539
aF-0.08463528007268906
aF0.019966330379247665
aF-0.06081248074769974
aF-0.04743353649973869
aF-0.003140944754704833
aF0.06532513350248337
aF-0.15460623800754547
aF-0.10223289579153061
aF-0.14190129935741425
aF-0.04001091420650482
aF-0.10715041309595108
aF0.019782504066824913
aF-0.05951699614524841
aF-0.130946546792984
aF-0.12594273686408997
aF-0.0866856575012207
aF-0.14653559029102325
aF-0.07093509286642075
aF-0.14367026090621948
aF-0.1865941435098648
aF-0.11344671994447708
aF-0.15914244949817657
aF0.008759033866226673
aF-0.16507753729820251
aF-0.030450060963630676
aF-0.05150797963142395
aF-0.15350301563739777
aF-0.10255108773708344
aF-0.02512555941939354
aF-0.03842761740088463
aF-0.14169658720493317
aF-0.07114589214324951
aF-0.047895364463329315
aF-0.13802319765090942
aF0.07532108575105667
aF-0.004640283528715372
aF-0.07691753655672073
aF-0.1620672047138214
aF-0.08750063925981522
aF-0.05087486654520035
aF-0.06890686601400375
aF-0.09219731390476227
aF-0.0332462340593338
aF-0.12202277034521103
aF-0.1807994246482849
aF0.03809773176908493
aF-0.12566111981868744
aF-0.18770211935043335
aF-0.07093347609043121
aF-0.08105765283107758
aF0.03982160985469818
aF-0.0010788821382448077
aF-0.07413128763437271
aF-0.18643109500408173
aF-0.06329585611820221
aF-0.07529166340827942
aF-0.14926648139953613
aF0.002697990508750081
aF-0.1477135419845581
aF-0.07083871960639954
aF-0.16602283716201782
aF-0.16577225923538208
aF-0.3809356987476349
aF-0.11698685586452484
aF-0.16034114360809326
aF-0.056972481310367584
aF-0.08069360256195068
aF-0.18988223373889923
aF-0.04167309030890465
aF-0.05768910050392151
aF-0.1426304131746292
aF-0.0437803715467453
aF-0.025458678603172302
aF-0.06769748032093048
aF-0.15582275390625
aF-0.05591481924057007
aF-0.06073097139596939
aF-0.05151566118001938
aF-0.0849154144525528
aF-0.1663084179162979
aF-0.14488348364830017
aF-0.17710283398628235
aF-0.03808525949716568
aF-0.07381338626146317
aF-0.11792180687189102
aF-0.04023844748735428
aF-0.11090943962335587
aF-0.15899509191513062
aF-0.09499818831682205
aF-0.06761308014392853
aF-0.041728898882865906
aF-0.04815194755792618
aF-0.04008905589580536
aF-0.029054462909698486
aF-0.07350555062294006
aF-0.13329070806503296
aF-0.05002368241548538
aF-0.1558062732219696
aF-0.08442910760641098
aF-0.19052374362945557
aF-0.09004180133342743
aF-0.16045567393302917
aF-0.18710267543792725
aF-0.06080169230699539
aF-0.15376964211463928
aF-0.0549238845705986
aF-0.06396734714508057
aF-0.04690828174352646
aF-0.04570616036653519
aF-0.1644604653120041
aF-0.08411598205566406
aF-0.18510498106479645
aF-0.034552596509456635
aF-0.0818888396024704
aF-0.15860745310783386
aF-0.12679442763328552
aF-0.18192249536514282
aF-0.09547504037618637
aF-0.176527738571167
aF-0.13880513608455658
aF-0.06037408486008644
aF-0.136427640914917
aF-0.07084281742572784
aF-0.06221078708767891
aF-0.1567632555961609
aF-0.1908872127532959
aF-0.05652797967195511
aF0.06800854206085205
aF-0.07522599399089813
aF-0.06372546404600143
aF0.09904014319181442
aF0.06217852234840393
aF-0.057785943150520325
aF0.05167590454220772
aF0.0772743970155716
aF-0.04509333148598671
aF-0.07676206529140472
aF-0.10512274503707886
aF-0.17310163378715515
aF-0.03979719430208206
aF-0.050617773085832596
aF-0.17357759177684784
aF-0.03403572738170624
aF-0.17431172728538513
aF-0.08238954842090607
aF-0.10028225928544998
aF-0.062202323228120804
aF-0.17401093244552612
aF-0.02626422792673111
aF-0.05876491963863373
aF-0.07451226562261581
aF-0.014843963086605072
aF-0.14015668630599976
aF-0.175716832280159
aF-0.17981933057308197
aF-0.03498920053243637
aF0.05773846432566643
aF-0.04669759422540665
aF-0.037844717502593994
aF0.0670241042971611
aF-0.005312788300216198
aF-0.16050906479358673
aF0.07577910274267197
aF0.08105143159627914
aF-0.08445260673761368
aF-0.11804419755935669
aF-0.09946697950363159
aF-0.08826398849487305
aF-0.13343393802642822
aF-0.15698730945587158
aF0.05694814771413803
aF-0.1437816470861435
aF-0.17245027422904968
aF0.07034970074892044
aF-0.02702070027589798
aF-0.03054802119731903
aF-0.1580955535173416
aF-0.10011406987905502
aF-0.16695357859134674
aF-0.08783607929944992
aF-0.02274789661169052
aF-0.08311836421489716
aF-0.12310733646154404
aF-0.013307742774486542
aF-0.16235041618347168
aF0.07617729157209396
aF-0.01726292073726654
aF-0.1840004175901413
aF-0.0887153148651123
aF-0.09027563035488129
aF-0.10127624124288559
aF0.06797606498003006
aF-0.12351836264133453
aF0.07923287153244019
aF-0.1058373972773552
aF-0.15928375720977783
aF-0.008901773020625114
aF-0.04966891184449196
aF-0.12076347321271896
aF-0.11694099009037018
aF-0.14873838424682617
aF-0.0004830259713344276
aF-0.015047252178192139
aF-0.027951359748840332
aF-0.16048921644687653
aF-0.09862051159143448
aF-0.12304826080799103
aF-0.02151881903409958
aF-0.15194766223430634
aF-0.09857547283172607
aF0.00879395566880703
aF-0.08321389555931091
aF-0.1743437647819519
aF-0.16067712008953094
aF-0.17536501586437225
aF-0.14513690769672394
aF-0.12170860171318054
aF-0.05529911443591118
aF-0.1574847549200058
aF-0.12971724569797516
aF-0.15823066234588623
aF-0.11914167553186417
aF-0.02181270904839039
aF-0.15480904281139374
aF-0.164568230509758
aF-0.18133297562599182
aF-0.05750173702836037
aF-0.18103407323360443
aF-0.17428739368915558
aF-0.10692910850048065
aF-0.14241033792495728
aF-0.10297228395938873
aF-0.1001092866063118
aF-0.14103397727012634
aF-0.045613843947649
aF-0.10053082555532455
aF-0.03361988812685013
aF-0.1006278321146965
aF-0.019799306988716125
aF-0.021053746342658997
aF-0.06041121855378151
aF-0.021084412932395935
aF-0.03362906724214554
aF-0.0857681930065155
aF-0.1641797125339508
aF-0.14061132073402405
aF-0.16660580039024353
aF-0.04703029990196228
aF-0.07706613838672638
aF-0.0344267264008522
aF-0.09176091104745865
aF-0.0612851046025753
aF-0.07027003169059753
aF-0.15065127611160278
aF-0.17349189519882202
aF-0.0653114914894104
aF-0.07761409878730774
aF0.008899812586605549
aF-0.02120497077703476
aF-0.02250795066356659
aF-0.02473631501197815
aF-0.008840537630021572
aF-0.06517791748046875
aF-0.1871776282787323
aF-0.09190573543310165
aF-0.12537595629692078
aF-0.1758967936038971
aF-0.02239946462213993
aF-0.07065433263778687
aF-0.020020557567477226
aF-0.11170085519552231
aF-0.14864133298397064
aF-0.046500954777002335
aF-0.1715690791606903
aF-0.10759366303682327
aF-0.08308447152376175
aF-0.1519125998020172
aF-0.05330471694469452
aF-0.06100492924451828
aF-0.11613918840885162
aF-0.09993784874677658
aF-0.06557521224021912
aF-0.05948178470134735
aF-0.12960146367549896
aF-0.10040044784545898
aF-0.14007516205310822
aF-0.1333690583705902
aF0.06389662623405457
aF0.06208023056387901
aF-0.08697083592414856
aF0.0015968021471053362
aF0.06585510075092316
aF-0.1412191390991211
aF-0.04288974776864052
aF-0.06741821020841599
aF-0.09756410121917725
aF-0.18559297919273376
aF-0.0667562186717987
aF-0.07472483068704605
aF-0.11339487135410309
aF-0.11893699318170547
aF-0.10285469889640808
aF-0.1398458629846573
aF-0.14657826721668243
aF-0.05623578652739525
aF-0.0435621477663517
aF-0.10563462227582932
aF0.0769793763756752
aF-0.08401694893836975
aF-0.1733494997024536
aF-0.011735960841178894
aF0.08602748811244965
aF0.015191812068223953
aF-0.11560983210802078
aF-0.0689791813492775
aF-0.02666444331407547
aF-0.03456232696771622
aF-0.17658834159374237
aF-0.07549120485782623
aF-0.034233205020427704
aF-0.09147822111845016
aF-0.017946936190128326
aF-0.09607002139091492
aF-0.09630437195301056
aF-0.16230887174606323
aF0.071348175406456
aF-0.030352190136909485
aF-0.12581762671470642
aF-0.18405836820602417
aF-0.07067354768514633
aF-0.09170719236135483
aF-0.11278200894594193
aF-0.09833899140357971
aF-0.16609615087509155
aF-0.1314914971590042
aF-0.12698504328727722
aF-0.052583299577236176
aF-0.09149043262004852
aF-0.1677805483341217
aF-0.18632730841636658
aF-0.15692302584648132
aF-0.03491561859846115
aF-0.08507521450519562
aF-0.01631251722574234
aF-0.07814481854438782
aF-0.18468092381954193
aF-0.04239997640252113
aF-0.12594804167747498
aF-0.051767803728580475
aF-0.15914452075958252
aF-0.05033406242728233
aF-0.11234688758850098
aF-0.1652025580406189
aF-0.1522195041179657
aF-0.13502462208271027
aF-0.08228939026594162
aF-0.1454818695783615
aF-0.09634557366371155
aF-0.02958942949771881
aF-0.07912576198577881
aF-0.07085078954696655
aF-0.1811084747314453
aF0.055032070726156235
aF-0.063804492354393
aF-0.18422582745552063
aF-0.1313297003507614
aF-0.1560552716255188
aF-0.16644489765167236
aF-0.1394735872745514
aF-0.1871459186077118
aF-0.01715213805437088
aF-0.12385687232017517
aF-0.04432077333331108
aF-0.0439365915954113
aF-0.046157561242580414
aF-0.15205048024654388
aF-0.13300040364265442
aF-0.10885602235794067
aF-0.12480224668979645
aF-0.13583308458328247
aF-0.03049355000257492
aF-0.11788012087345123
aF-0.02920292317867279
aF-0.05613166466355324
aF-0.01676975190639496
aF-0.04576333239674568
aF-0.15160009264945984
aF-0.07941257208585739
aF-0.11351825296878815
aF-0.04363860562443733
aF0.01752961426973343
aF-0.10407231003046036
aF-0.03402362018823624
aF-0.027207069098949432
aF-0.13726845383644104
aF0.07577518373727798
aF-0.09325584769248962
aF-0.10401560366153717
aF-0.17345476150512695
aF-0.18609389662742615
aF-0.04524692893028259
aF-0.08834802359342575
aF-0.05253193899989128
aF-0.16144916415214539
aF-0.16425645351409912
aF-0.11431821435689926
aF0.08031539618968964
aF-0.18539249897003174
aF-0.06646624207496643
aF-0.07629527151584625
aF-0.1718566119670868
aF-0.10191555321216583
aF0.008870203047990799
aF-0.015575838275253773
aF-0.1718418002128601
aF-0.02958390675485134
aF0.004303102381527424
aF-0.09582251310348511
aF-0.05910811200737953
aF-0.012732600793242455
aF-0.07108388841152191
aF-0.08481797575950623
aF-0.18326392769813538
aF-0.1436464935541153
aF-0.05194573104381561
aF-0.04204005002975464
aF0.027088705450296402
aF-0.03506241738796234
aF-0.12236616015434265
aF0.037642259150743484
aF-0.02196243405342102
aF-0.014453403651714325
aF-0.01429523341357708
aF0.07020938396453857
aF-0.0496462918817997
aF-0.027537601068615913
aF-0.06772968173027039
aF-0.16556638479232788
aF0.05367887765169144
aF-0.08292391896247864
aF-0.043709222227334976
aF-0.013468319550156593
aF-0.1242874413728714
aF-0.09418486803770065
aF0.035857487469911575
aF0.08581873029470444
aF-0.11777779459953308
aF-0.013203904032707214
aF-0.16094611585140228
aF-0.057272713631391525
aF-0.11010865122079849
aF-0.13457748293876648
aF-0.009324280545115471
aF-0.05190175771713257
aF-0.12249084562063217
aF-0.0345526859164238
aF-0.09609207510948181
aF0.0826387107372284
aF-0.06370154768228531
aF-0.07635761052370071
aF-0.14956212043762207
aF-0.027462467551231384
aF-0.11323222517967224
aF-0.14441169798374176
aF-0.0920349508523941
aF-0.04465079680085182
aF-0.12886568903923035
aF-0.08508622646331787
aF-0.10225198417901993
aF-0.012853175401687622
aF-0.15175265073776245
aF-0.08525072783231735
aF-0.11409416794776917
aF-0.13874565064907074
aF-0.06889297068119049
aF-0.11102349311113358
aF-0.08780211210250854
aF-0.11378159373998642
aF-0.1549220234155655
aF-0.023184552788734436
aF-0.033010631799697876
aF-0.10018084943294525
aF-0.043451856821775436
aF-0.07917331904172897
aF-0.16716864705085754
aF-0.14548827707767487
aF-0.05390534549951553
aF-0.1273544728755951
aF-0.17053842544555664
aF-0.03452777862548828
aF-0.07640261203050613
aF-0.18432757258415222
aF-0.0602523572742939
aF-0.01823984831571579
aF-0.14154177904129028
aF-0.13530893623828888
aF-0.03996213525533676
aF-0.02628917247056961
aF-0.03241428732872009
aF-0.04971858859062195
aF-0.15267586708068848
aF-0.049176543951034546
aF-0.03890035301446915
aF-0.0372486487030983
aF-0.16370001435279846
aF-0.18037199974060059
aF-0.16937008500099182
aF-0.18252615630626678
aF-0.1766427457332611
aF-0.0738653764128685
aF-0.1579158753156662
aF0.02335474267601967
aF-0.08803663402795792
aF-0.0984969511628151
aF-0.06960055232048035
aF-0.13754595816135406
aF0.060191527009010315
aF0.07110486924648285
aF-0.12922494113445282
aF-0.018802903592586517
aF-0.11951857060194016
aF-0.07301562279462814
aF-0.14580149948596954
aF0.06703079491853714
aF-0.07115812599658966
aF-0.044245459139347076
aF0.05900241807103157
aF-0.10243771970272064
aF-0.13425764441490173
aF-0.0819312259554863
aF-0.10731622576713562
aF-0.13991765677928925
aF-0.09523341059684753
aF-0.0032835863530635834
aF-0.08782026171684265
aF-0.15688203275203705
aF-0.054529279470443726
aF-0.11584688723087311
aF-0.20294636487960815
aF-0.11582058668136597
aF-0.061809513717889786
aF-0.2198304831981659
aF-0.050892043858766556
aF0.015939805656671524
aF-0.01752818189561367
aF0.09085101634263992
aF-0.08706892281770706
aF-0.06216927245259285
aF0.024935029447078705
aF-0.08078323304653168
aF-0.16372987627983093
aF-0.07833743840456009
aF-0.09808806329965591
aF-0.08823146671056747
aF-0.018484078347682953
aF-0.12344755232334137
aF-0.2025643140077591
aF-0.044263266026973724
aF-0.03850666433572769
aF-0.043086569756269455
aF-0.280570924282074
aF0.7735791206359863
aF-0.1529175341129303
aF0.024889584630727768
aF-0.15246500074863434
aF0.010250690393149853
aF-1.2054249048233032
aF0.1905784010887146
aF-0.061596885323524475
aF0.04598888009786606
aF-0.10917078703641891
aF-0.05968591570854187
aF-1.0890743732452393
aF0.19335487484931946
aF-0.07502654939889908
aF-0.06459002941846848
aF-0.0032007917761802673
aF-0.27852359414100647
aF0.07879779487848282
aF-0.01824485883116722
aF-0.053964827209711075
aF-0.0378103069961071
aF-0.1471482664346695
aF-0.1017458587884903
aF-0.04597383737564087
aF0.08294565975666046
aF-0.02196216955780983
aF-0.06027345731854439
aF-0.022368941456079483
aF-0.11631570011377335
aF-0.0015912465751171112
aF-0.003695499151945114
aF-0.023345891386270523
aF-0.05065231770277023
aF0.014667525887489319
aF-0.038670893758535385
aF-0.02494848519563675
aF-0.005037169903516769
aF-0.01936543732881546
aF-0.050554126501083374
aF-0.12335149198770523
aF-0.15491196513175964
aF-0.036473147571086884
aF-0.10480358451604843
aF0.014135204255580902
aF-0.019932765513658524
aF-0.03134334832429886
aF-0.03033467009663582
aF-0.15883365273475647
aF-0.14456109702587128
aF-0.041906680911779404
aF-0.030588433146476746
aF-0.06463153660297394
aF-0.135915607213974
aF-0.047848135232925415
aF0.01464112102985382
aF-0.034600600600242615
aF-0.11334297060966492
aF0.008813626132905483
aF-0.15405519306659698
aF-0.033157333731651306
aF-0.11250056326389313
aF-0.08802370727062225
aF-0.058182161301374435
aF-0.06113572046160698
aF0.006163664162158966
aF-0.15342015027999878
aF0.006652772426605225
aF-0.12976913154125214
aF-0.060573965311050415
aF-0.18017199635505676
aF-0.15168434381484985
aF-0.003460284322500229
aF-0.10379128158092499
aF-0.018935661762952805
aF-0.03837180882692337
aF-0.10867822170257568
aF-0.015644673258066177
aF-0.033158838748931885
aF-0.024135174229741096
aF-0.028066568076610565
aF0.2314663827419281
aF-0.3615298569202423
aF-0.33622321486473083
aF0.3274478316307068
aF0.029683038592338562
aF-0.047854192554950714
aF-0.00982833281159401
aF-0.00491734966635704
aF-0.12489181756973267
aF-0.14176535606384277
aF0.03886881470680237
aF-0.04073431342840195
aF-0.017271824181079865
aF-0.013371855020523071
aF-0.057551853358745575
aF-0.05016087368130684
aF-0.18465694785118103
aF-0.08550544083118439
aF-0.07154878228902817
aF-0.10174626111984253
aF-0.05404509976506233
aF-0.05758356302976608
aF-0.05692800134420395
aF-0.02513902634382248
aF-0.10809273272752762
aF-0.16547203063964844
aF-0.0672767236828804
aF0.006678459700196981
aF-0.04846804589033127
aF-0.1749485582113266
aF0.010619095526635647
aF0.02482662722468376
aF-0.025721058249473572
aF0.05309193208813667
aF0.017124375328421593
aF-0.17703503370285034
aF-0.0418396070599556
aF-0.06237282231450081
aF-0.05423201993107796
aF-0.18253642320632935
aF-0.10866067558526993
aF-0.07502208650112152
aF-0.07179337739944458
aF-0.06315924972295761
aF0.06172358617186546
aF-0.10967566817998886
aF-0.047010794281959534
aF0.03197050094604492
aF-0.05835337936878204
aF-0.13743025064468384
aF0.07091889530420303
aF-0.14877113699913025
aF-0.04740331694483757
aF-0.017184173688292503
aF0.03643305227160454
aF-0.04457464441657066
aF-0.0610993430018425
aF-0.020437046885490417
aF-0.12417168915271759
aF-0.06617368757724762
aF-0.029812268912792206
aF-0.08566103130578995
aF-0.012631766498088837
aF-0.04778040200471878
aF-0.16626480221748352
aF-0.01174866408109665
aF-0.07729543745517731
aF0.08443814516067505
aF-0.04268722981214523
aF-0.1867239773273468
aF-0.11830931901931763
aF-0.014009743928909302
aF0.08699198812246323
aF-0.18360376358032227
aF-0.1859138458967209
aF-0.18824949860572815
aF-0.11100400239229202
aF-0.055734068155288696
aF-0.03764006495475769
aF-0.029079608619213104
aF-0.05871284380555153
aF-0.018151171505451202
aF-0.04189322516322136
aF-0.12039545178413391
aF-0.0646553784608841
aF-0.059078771620988846
aF-0.12600357830524445
aF-0.09431256353855133
aF-0.18456462025642395
aF-0.04809069260954857
aF-0.11459874361753464
aF-0.06709910929203033
aF-0.06047060340642929
aF-0.028749138116836548
aF-0.07990952581167221
aF-0.13181239366531372
aF-0.14844925701618195
aF-0.07206133753061295
aF-0.0645270049571991
aF-0.1556822508573532
aF-0.06435178965330124
aF-0.1757948100566864
aF-0.15683068335056305
aF-0.16830870509147644
aF-0.06064329668879509
aF0.02702099271118641
aF-0.07410725951194763
aF-0.04226406663656235
aF-0.1680571436882019
aF-0.1629202663898468
aF-0.052995678037405014
aF-0.17572814226150513
aF-0.06281834840774536
aF-0.12026400119066238
aF-0.14320074021816254
aF-0.07305754721164703
aF-0.07138755917549133
aF-0.1435757577419281
aF-0.08445485681295395
aF-0.08067541569471359
aF-0.18255198001861572
aF-0.017176002264022827
aF-0.08973144739866257
aF-0.1473056823015213
aF-0.0665961503982544
aF-0.10482849180698395
aF0.08249732851982117
aF-0.02890481799840927
aF-0.10253129154443741
aF-0.18055284023284912
aF-0.014990359544754028
aF0.08001347631216049
aF-0.08375124633312225
aF-0.09689308702945709
aF-0.06370270252227783
aF-0.040344882756471634
aF-0.09056404232978821
aF-0.04233634099364281
aF0.016525890678167343
aF-0.05279591307044029
aF-0.13775022327899933
aF-0.1449294239282608
aF-0.14026470482349396
aF0.12849681079387665
aF-0.0418497696518898
aF-0.17152458429336548
aF-0.15346688032150269
aF-0.17688682675361633
aF-0.0872788205742836
aF-0.08829668164253235
aF-0.16858021914958954
aF-0.026526808738708496
aF-0.15480250120162964
aF-0.11909610033035278
aF-0.07633078098297119
aF0.05975800007581711
aF-0.0681472048163414
aF-0.04235931113362312
aF0.07190706580877304
aF-0.0029572476632893085
aF-0.04532795399427414
aF-0.025320611894130707
aF-0.08835451304912567
aF-0.021248243749141693
aF-0.15219250321388245
aF-0.08129313588142395
aF-0.14892560243606567
aF-0.05820120498538017
aF-0.097730353474617
aF-0.08042770624160767
aF-0.06106088310480118
aF-0.1866583526134491
aF-0.0046712979674339294
aF-0.012280188500881195
aF-0.022055529057979584
aF0.03618396818637848
aF0.018315650522708893
aF-0.04070073366165161
aF-0.038098230957984924
aF-0.014255493879318237
aF-0.1665307581424713
aF-0.05546366795897484
aF-0.039044756442308426
aF-0.17638368904590607
aF-0.007989970967173576
aF-0.15107190608978271
aF-0.09809374064207077
aF0.006866296287626028
aF-0.03472689166665077
aF-0.05017447844147682
aF-0.1696510910987854
aF-0.15772391855716705
aF-0.07004169374704361
aF-0.07555714249610901
aF-0.056575242429971695
aF0.0849747583270073
aF-0.1182682141661644
aF-0.11683213710784912
aF-0.1225162222981453
aF-0.034646786749362946
aF-0.010513524524867535
aF-0.07103017717599869
aF-0.17302724719047546
aF-0.03966858610510826
aF-0.08156396448612213
aF-0.05790539085865021
aF-0.1313392072916031
aF-0.14645355939865112
aF-0.1483098566532135
aF-0.11459572613239288
aF-0.17297828197479248
aF-0.11314024031162262
aF-0.027968473732471466
aF-0.014125965535640717
aF-0.08242030441761017
aF-0.08195366710424423
aF-0.1444598287343979
aF-0.10878682881593704
aF-0.03014557808637619
aF-0.03893362730741501
aF-0.12385476380586624
aF-0.053702034056186676
aF-0.02262062579393387
aF-0.07207042723894119
aF-0.0483667217195034
aF-0.02992115169763565
aF-0.08523673564195633
aF-0.10947106778621674
aF-0.09445225447416306
aF-0.09488113969564438
aF-0.08284664154052734
aF-0.17803969979286194
aF-0.08766765892505646
aF-0.057623133063316345
aF-0.07326336950063705
aF-0.047331515699625015
aF-0.1060122698545456
aF-0.06452110409736633
aF-0.12870897352695465
aF-0.11375357955694199
aF-0.03080066293478012
aF-0.10935220122337341
aF-0.14576534926891327
aF-0.15557824075222015
aF-0.06938284635543823
aF-0.07423582673072815
aF-0.11269412189722061
aF-0.04267061501741409
aF-0.12983132898807526
aF-0.0948028638958931
aF-0.0850270688533783
aF-0.09919186681509018
aF-0.05377736687660217
aF-0.07120944559574127
aF0.004203164484351873
aF-0.11399801075458527
aF-0.14834220707416534
aF0.13058196008205414
aF0.06965673714876175
aF0.051508817821741104
aF0.03551185503602028
aF-0.14233985543251038
aF-0.025527916848659515
aF-0.18203701078891754
aF-0.01576976478099823
aF-0.06035524979233742
aF0.009503331035375595
aF-0.030015483498573303
aF-0.07523123919963837
aF-0.1141459122300148
aF-0.09500273317098618
aF0.0444302074611187
aF-0.17946547269821167
aF-0.12898513674736023
aF-0.021904997527599335
aF-0.16166836023330688
aF-0.030630163848400116
aF0.06747019290924072
aF-0.026354245841503143
aF-0.1750222146511078
aF-0.06648141145706177
aF-0.14475855231285095
aF-0.038354311138391495
aF-0.08718167990446091
aF0.0879657045006752
aF-0.16547444462776184
aF-0.027255361899733543
aF-0.002178359543904662
aF-0.015144489705562592
aF-0.06918352842330933
aF0.07197947055101395
aF-0.06083399057388306
aF-0.13360977172851562
aF-0.18232105672359467
aF-0.092979297041893
aF-0.03465062379837036
aF-0.14842647314071655
aF0.04743574932217598
aF-0.08374404907226562
aF-0.1828737109899521
aF0.010069282725453377
aF-0.15715056657791138
aF-0.109673872590065
aF-0.07100199162960052
aF-0.030559329316020012
aF0.15125541388988495
aF0.0770176574587822
aF-0.09537599235773087
aF-0.15218307077884674
aF0.039405614137649536
aF-0.07763732224702835
aF-0.058586668223142624
aF0.06846810132265091
aF-0.1408248096704483
aF-0.07148218154907227
aF0.034053269773721695
aF0.08421821892261505
aF-0.07304926216602325
aF-0.12641100585460663
aF-0.11149226874113083
aF0.15546415746212006
aF-0.10407236218452454
aF-0.14176276326179504
aF-0.0061628855764865875
aF-0.07956869900226593
aF-0.17354074120521545
aF-0.07278544455766678
aF-0.156477153301239
aF-0.04016314074397087
aF-0.04993249103426933
aF-0.15514084696769714
aF-0.14756979048252106
aF-0.06570175290107727
aF-0.06077144667506218
aF-0.16027629375457764
aF-0.061798494309186935
aF-0.15704241394996643
aF-0.06545203924179077
aF-0.1109410747885704
aF-0.13659310340881348
aF-0.1519646793603897
aF-0.01790064573287964
aF-0.031351685523986816
aF-0.1170244812965393
aF-0.09552236646413803
aF-0.06931938976049423
aF-0.11883483827114105
aF-0.044740308076143265
aF-0.08735968172550201
aF-0.03287613391876221
aF-0.06357093900442123
aF-0.032608360052108765
aF-0.08504784107208252
aF-0.10120128840208054
aF-0.01728043705224991
aF-0.1788484752178192
aF-0.11823524534702301
aF-0.17484846711158752
aF-0.12382523715496063
aF-0.12611337006092072
aF-0.18233069777488708
aF0.016424821689724922
aF-0.026287995278835297
aF-0.12197426706552505
aF-0.14550372958183289
aF-0.1848852038383484
aF-0.10985859483480453
aF-0.14548948407173157
aF-0.03328121453523636
aF-0.1685129702091217
aF-0.08418217301368713
aF-0.0780303031206131
aF-0.018753260374069214
aF-0.048998113721609116
aF-0.14937882125377655
aF-0.07026611268520355
aF-0.04242996126413345
aF-0.10217487812042236
aF-0.100582554936409
aF-0.07521821558475494
aF-0.01727963238954544
aF-0.027639023959636688
aF0.021450333297252655
aF-0.13101015985012054
aF-0.07060178369283676
aF0.15472517907619476
aF0.18131372332572937
aF0.017594724893569946
aF-0.021245183423161507
aF-0.1564076840877533
aF-0.028087161481380463
aF-0.12190088629722595
aF-0.11093609035015106
aF-0.18627724051475525
aF0.024041399359703064
aF-0.009738340973854065
aF-0.1312561333179474
aF-0.08481696993112564
aF-0.10391458123922348
aF-0.04892311245203018
aF-0.051641080528497696
aF-0.027976691722869873
aF-0.058485355228185654
aF-0.15237319469451904
aF-0.038157448172569275
aF-0.08307037502527237
aF-0.06522011756896973
aF-0.17124876379966736
aF-0.09208741039037704
aF-0.15884321928024292
aF-0.16730308532714844
aF-0.016494764015078545
aF0.06865175068378448
aF-0.1570148766040802
aF-0.04895596206188202
aF-0.06956362724304199
aF-0.14635781943798065
aF-0.0585646890103817
aF-0.003360400442034006
aF-0.12545454502105713
aF-0.03868136554956436
aF-0.13816511631011963
aF-0.038075871765613556
aF-0.19737392663955688
aF-0.010012187063694
aF0.028631696477532387
aF-0.12018442153930664
aF-0.08922602236270905
aF0.04619371145963669
aF-0.06839672476053238
aF-0.15189510583877563
aF-0.475683331489563
aF-0.08584465831518173
aF-0.14730378985404968
aF-0.06407798081636429
aF-0.07819820940494537
aF-0.03466910868883133
aF-0.6851527690887451
aF0.07741761207580566
aF-0.08693990856409073
aF-0.03731510788202286
aF-0.05107899010181427
aF-0.04185596853494644
aF-0.6121711134910583
aF-0.02049821987748146
aF-0.16888189315795898
aF-0.09353750944137573
aF-0.1856815069913864
aF-0.16244910657405853
aF-0.08361020684242249
aF-0.11973834782838821
aF-0.08289925754070282
aF-0.17505165934562683
aF-0.142341747879982
aF-0.08718439936637878
aF-0.18558785319328308
aF-0.042439352720975876
aF-0.09242880344390869
aF-0.048147574067115784
aF-0.15691407024860382
aF-0.15526877343654633
aF-0.13552920520305634
aF-0.18914535641670227
aF-0.1214979961514473
aF-0.08944264054298401
aF-0.028165951371192932
aF-0.03343672305345535
aF-0.03634295612573624
aF-0.028306737542152405
aF-0.16469258069992065
aF-0.06707894802093506
aF-0.03263075649738312
aF-0.061350468546152115
aF-0.1551952362060547
aF-0.15787948668003082
aF-0.159925639629364
aF-0.18722191452980042
aF-0.1320035606622696
aF-0.05688105523586273
aF-0.05687590315937996
aF-0.060158926993608475
aF-0.05453873798251152
aF-0.12408749014139175
aF-0.09051401913166046
aF-0.1278553158044815
aF-0.05773172900080681
aF-0.13200534880161285
aF-0.18620407581329346
aF-0.14474283158779144
aF-0.018886055797338486
aF-0.029293060302734375
aF-0.04341135919094086
aF-0.16596604883670807
aF-0.08928379416465759
aF-0.05144168436527252
aF-0.11620114743709564
aF-0.10993342846632004
aF-0.04898571968078613
aF-0.08464819937944412
aF-0.14234736561775208
aF-0.12327544391155243
aF-0.10652416944503784
aF-0.11077918112277985
aF-0.15121996402740479
aF-0.0935603454709053
aF-0.11919039487838745
aF-0.08759204298257828
aF-0.04701561480760574
aF-0.16429255902767181
aF-0.07591728866100311
aF-0.0038295136764645576
aF-0.18508142232894897
aF-0.019610289484262466
aF-0.2530938982963562
aF-0.17510947585105896
aF-0.024652784690260887
aF0.06502004712820053
aF-0.1480758786201477
aF-0.08294352889060974
aF-0.14591611921787262
aF-0.02550005167722702
aF-0.16013354063034058
aF-0.029881419613957405
aF-0.04993439093232155
aF-0.12933681905269623
aF-0.15610605478286743
aF-0.16690796613693237
aF-0.03383678197860718
aF-0.013374298810958862
aF-0.16835226118564606
aF-0.03537530452013016
aF-0.13038809597492218
aF-0.01574016362428665
aF0.08616191893815994
aF-0.15195555984973907
aF-0.17301924526691437
aF-0.07856588810682297
aF-0.11707718670368195
aF-0.10674488544464111
aF0.06733144074678421
aF-0.05963977798819542
aF-0.09743604809045792
aF-0.010486145503818989
aF-0.058813516050577164
aF-0.04389544948935509
aF0.026601579040288925
aF-0.0004735015972983092
aF-0.16338422894477844
aF-0.10361908376216888
aF-0.09573996812105179
aF-0.027752727270126343
aF-0.11117589473724365
aF-0.05447185039520264
aF0.06906292587518692
aF-0.12749727070331573
aF-0.039022158831357956
aF0.0662069097161293
aF-0.0688384398818016
aF-0.16837145388126373
aF0.011649356223642826
aF0.06674759089946747
aF-0.0612584725022316
aF-0.04029953107237816
aF-0.16440334916114807
aF-0.018773511052131653
aF0.056967444717884064
aF0.05515684559941292
aF-0.16224583983421326
aF-0.061102692037820816
aF-0.06435146927833557
aF-0.062174130231142044
aF0.047779303044080734
aF0.03422591835260391
aF-0.08560582995414734
aF-0.12187343090772629
aF-0.11640486121177673
aF-0.1810399740934372
aF-0.10888906568288803
aF-0.1836090087890625
aF0.015538924373686314
aF-0.17856815457344055
aF-0.10698837041854858
aF-0.13707038760185242
aF-0.05586995184421539
aF-0.039813265204429626
aF-0.07616245746612549
aF-0.016266442835330963
aF-0.0751928985118866
aF-0.030588388442993164
aF-0.18688008189201355
aF-0.08993516862392426
aF-0.01797214150428772
aF-0.06927749514579773
aF-0.10726413130760193
aF-0.088831827044487
aF-0.048147886991500854
aF-0.042178377509117126
aF-0.08746134489774704
aF-0.1184394434094429
aF-0.11501777917146683
aF-0.1632077842950821
aF-0.16437815129756927
aF-0.11731203645467758
aF-0.037217460572719574
aF-0.057877957820892334
aF-0.10077425837516785
aF-0.05053145810961723
aF-0.08711308985948563
aF-0.05883725360035896
aF-0.06830191612243652
aF-0.047928985208272934
aF-0.14151637256145477
aF-0.05041592940688133
aF-0.08899428695440292
aF-0.12894925475120544
aF-0.15918031334877014
aF-0.11442328989505768
aF0.07274968177080154
aF-0.0501449853181839
aF-0.1545644998550415
aF-0.10692046582698822
aF-0.035978615283966064
aF-0.07274488359689713
aF-0.11334127932786942
aF-0.18588963150978088
aF-0.0955381840467453
aF-0.1654396802186966
aF-0.06473446637392044
aF-0.10025597363710403
aF-0.06556344032287598
aF-0.029235437512397766
aF-0.05728739872574806
aF-0.10045052319765091
aF-0.08038562536239624
aF-0.13901618123054504
aF-0.041326068341732025
aF-0.10813193768262863
aF-0.06802725791931152
aF0.017225883901119232
aF-0.16301384568214417
aF-0.14284227788448334
aF-0.019821472465991974
aF-0.1605726182460785
aF-0.05016086623072624
aF-0.05213690921664238
aF-0.051205188035964966
aF-0.18252941966056824
aF-0.09771766513586044
aF-0.12470930814743042
aF-0.126054048538208
aF-0.07729446142911911
aF-0.009689628146588802
aF0.01216870453208685
aF-0.027867985889315605
aF-0.04644600674510002
aF0.08568767458200455
aF0.023395342752337456
aF0.036290332674980164
aF-0.0613568015396595
aF-0.02434420771896839
aF0.001805678359232843
aF-0.06855136901140213
aF-0.018218282610177994
aF0.031132278963923454
aF-0.07366038858890533
aF0.022701019421219826
aF-0.05738384276628494
aF-0.02210938185453415
aF0.04262249171733856
aF0.05992934852838516
aF0.01836223155260086
aF-0.004100378602743149
aF-0.013387035578489304
aF0.04992905259132385
aF0.035260122269392014
aF-0.02829093299806118
aF0.055447861552238464
aF-0.0651470422744751
aF0.05272398516535759
aF0.03037429042160511
aF0.25875037908554077
aF0.017248962074518204
aF-0.05147271975874901
aF-0.06306523084640503
aF-0.007102309726178646
aF0.053166888654232025
aF0.04973231256008148
aF-0.660744845867157
aF-0.2132803201675415
aF-0.007844893261790276
aF-0.00636838236823678
aF0.020801618695259094
aF-0.04176798835396767
aF-0.7868580222129822
aF-0.18736468255519867
aF-0.05086235702037811
aF0.04406958818435669
aF0.0767119973897934
aF0.009439485147595406
aF-0.7368500232696533
aF-0.13733220100402832
aF-0.013155249878764153
aF0.06644544005393982
aF-0.008087806403636932
aF-0.19599416851997375
aF-0.044112201780080795
aF-0.03528226539492607
aF0.039951857179403305
aF0.04369553178548813
aF-0.08312025666236877
aF-0.07500564306974411
aF0.007533354684710503
aF-0.004955705720931292
aF-0.08152685314416885
aF0.05023520812392235
aF-0.010440223850309849
aF0.05034022778272629
aF-0.023639168590307236
aF0.04648301750421524
aF-0.0742577537894249
aF0.02131228893995285
aF0.03215397894382477
aF-0.06094677001237869
aF0.00028520048363134265
aF-0.05306295305490494
aF0.051943399012088776
aF-0.04005669429898262
aF-0.02395770698785782
aF-0.011867624707520008
aF0.010624589398503304
aF0.03046000562608242
aF-0.06415914744138718
aF-0.0203867107629776
aF-0.030999042093753815
aF-0.014528659172356129
aF0.032681774348020554
aF-0.07729430496692657
aF-0.08288829028606415
aF-0.00390644371509552
aF-0.006581304129213095
aF0.05384879186749458
aF-0.002189627615734935
aF-0.01567481830716133
aF0.04734142869710922
aF-0.004590064287185669
aF-0.06664443761110306
aF-0.04603089764714241
aF0.04819956049323082
aF0.000989370048046112
aF-0.08777374774217606
aF-0.05031907930970192
aF-0.05705045908689499
aF0.050164416432380676
aF0.06763701140880585
aF-0.0316355936229229
aF0.012386802583932877
aF0.07150641828775406
aF0.07322005182504654
aF0.0108090965077281
aF0.01113523542881012
aF-0.029256470501422882
aF-0.05298013240098953
aF-0.07413478940725327
aF-0.08554123342037201
aF-0.08992791920900345
aF0.06882496923208237
aF0.044277045875787735
aF-0.02692686952650547
aF0.22201216220855713
aF-0.056592684239149094
aF-0.03059965744614601
aF-0.142911896109581
aF-0.043616198003292084
aF-0.0832558274269104
aF0.0014105166774243116
aF0.08023205399513245
aF0.08096947520971298
aF0.03343383967876434
aF0.07509925961494446
aF0.07230442762374878
aF-0.018476193770766258
aF0.007364315912127495
aF0.12929998338222504
aF-0.020702190697193146
aF-0.05638394132256508
aF-0.02855229377746582
aF-0.05009307712316513
aF0.02386832796037197
aF-0.02439984306693077
aF-0.3243480622768402
aF-0.1411186307668686
aF0.09978600591421127
aF0.10187943279743195
aF0.08326206356287003
aF0.06797164678573608
aF-0.2826051115989685
aF0.01896449364721775
aF-0.08636981248855591
aF0.03060953877866268
aF0.022899044677615166
aF-0.010406682267785072
aF0.030233532190322876
aF0.007046059239655733
aF-0.03242916613817215
aF-0.1708507239818573
aF0.058257296681404114
aF0.020968999713659286
aF0.010660350322723389
aF-0.0743958055973053
aF-0.29962244629859924
aF0.08212108910083771
aF-0.06520868837833405
aF0.03682415187358856
aF0.02869841456413269
aF0.05811974033713341
aF0.008291643112897873
aF-0.08003117144107819
aF-0.017496462911367416
aF-0.06536044180393219
aF0.11028142273426056
aF-0.008325088769197464
aF0.2082090973854065
aF0.1588602513074875
aF0.08248034864664078
aF-0.33243340253829956
aF-0.07721245288848877
aF-0.016109419986605644
aF-0.05930083617568016
aF0.09773793816566467
aF-0.04311852529644966
aF0.062418438494205475
aF-0.019349172711372375
aF0.03516460955142975
aF0.05920426547527313
aF-0.19555041193962097
aF-0.0298372283577919
aF0.11253806948661804
aF0.00282321497797966
aF-0.10236814618110657
aF-0.0860663652420044
aF0.03467964753508568
aF-0.011457622051239014
aF-0.016652299091219902
aF0.04527698829770088
aF-0.06425604224205017
aF-0.043809905648231506
aF-0.07088097929954529
aF-0.06243768334388733
aF-0.013168921694159508
aF-0.06449933350086212
aF-0.03928685560822487
aF-0.04743952304124832
aF0.03952902927994728
aF0.07051041722297668
aF-0.0858510434627533
aF-0.05610627681016922
aF-0.11624851822853088
aF0.010855577886104584
aF0.035650987178087234
aF0.011282507330179214
aF0.052201177924871445
aF0.06048320606350899
aF-0.09414278715848923
aF0.012314893305301666
aF0.03127426281571388
aF-0.09537718445062637
aF0.018406182527542114
aF-0.07842716574668884
aF-0.0055114105343818665
aF0.01384611427783966
aF0.019744884222745895
aF-0.08088629692792892
aF-0.013309154659509659
aF0.01458306796848774
aF-0.03978271037340164
aF0.04285551607608795
aF0.002575259655714035
aF-0.08323217928409576
aF0.04191480576992035
aF-0.04160800576210022
aF-0.08560335636138916
aF-0.04155871644616127
aF-0.051195189356803894
aF-0.03625921905040741
aF0.045722950249910355
aF-0.08860920369625092
aF0.08024318516254425
aF-0.025702929124236107
aF0.009313683956861496
aF0.08036504685878754
aF-0.07943831384181976
aF-0.029770417138934135
aF0.0207124762237072
aF0.03315398842096329
aF0.07720375061035156
aF0.0448201484978199
aF-0.008129321038722992
aF0.18810835480690002
aF-0.10755867511034012
aF0.112406425178051
aF0.0442165806889534
aF-0.27005812525749207
aF0.03916272148489952
aF0.014168333262205124
aF0.02428218349814415
aF-0.014552928507328033
aF-0.002377311699092388
aF-0.07800464332103729
aF-0.12380227446556091
aF-0.019901737570762634
aF-0.18769153952598572
aF-0.11451404541730881
aF-0.0183306485414505
aF-0.15040017664432526
aF-0.07911904156208038
aF-0.05900155007839203
aF-0.1176653653383255
aF-0.06929720193147659
aF-0.18039454519748688
aF-0.03532155603170395
aF-0.10088420659303665
aF-0.15860429406166077
aF-0.10021711140871048
aF-0.06850620359182358
aF0.05699377506971359
aF-0.04440095275640488
aF-0.038508299738168716
aF-0.077718585729599
aF-0.15380221605300903
aF-0.026971764862537384
aF-0.05565750598907471
aF-0.08701301366090775
aF-0.041940316557884216
aF-0.13270214200019836
aF-0.10041836649179459
aF-0.09999548643827438
aF-0.0738823413848877
aF-0.06337493658065796
aF-0.017166711390018463
aF-0.0968603640794754
aF-0.04093364253640175
aF-0.05065852776169777
aF-0.11769091337919235
aF0.0516953207552433
aF0.051323387771844864
aF-0.13598112761974335
aF-0.03071998432278633
aF-0.12015332281589508
aF-0.09018132090568542
aF0.07805034518241882
aF-0.007886928506195545
aF-0.05372851714491844
aF-0.08409623801708221
aF-0.07239003479480743
aF-0.06684323400259018
aF-0.033296871930360794
aF-0.03317350521683693
aF-0.12045551091432571
aF-0.1447335183620453
aF-0.11158721894025803
aF-0.18454936146736145
aF-0.15244056284427643
aF-0.16774505376815796
aF-0.06343270093202591
aF-0.020037584006786346
aF-0.03999577835202217
aF-0.029495306313037872
aF-0.12789374589920044
aF0.021806322038173676
aF-0.11787159740924835
aF-0.1678164005279541
aF-0.05885009467601776
aF-0.169800266623497
aF-0.10885080695152283
aF-0.03527935594320297
aF-0.17451894283294678
aF-0.14285284280776978
aF-0.1154138594865799
aF-0.016720108687877655
aF-0.1310543715953827
aF-0.15163619816303253
aF-0.1722254455089569
aF-0.0429874062538147
aF-0.18799737095832825
aF-0.05858598276972771
aF-0.03819842264056206
aF-0.16532063484191895
aF-0.11435018479824066
aF-0.1656014621257782
aF-0.1063251942396164
aF-0.061426542699337006
aF-0.058021802455186844
aF-0.03385688364505768
aF-0.03610920161008835
aF-0.08253318816423416
aF-0.06028766185045242
aF-0.12684524059295654
aF-0.036399900913238525
aF-0.05806666240096092
aF-0.02972167730331421
aF-0.12484410405158997
aF-0.08333440124988556
aF-0.10011103004217148
aF-0.10601485520601273
aF-0.11937251687049866
aF-0.016112543642520905
aF-0.1697823405265808
aF-0.09861445426940918
aF-0.04634636268019676
aF-0.16255925595760345
aF-0.09431491792201996
aF-0.13809378445148468
aF-0.1494959145784378
aF-0.1607198417186737
aF-0.09031875431537628
aF-0.12599247694015503
aF-0.013666771352291107
aF-0.1501731127500534
aF-0.14015090465545654
aF-0.07678507268428802
aF-0.12883499264717102
aF-0.09222720563411713
aF0.06300795823335648
aF-0.02150629460811615
aF-0.03792024031281471
aF-0.1734352856874466
aF-0.1866084635257721
aF-0.010206944309175014
aF-0.008633955381810665
aF-0.018674440681934357
aF-0.10633019357919693
aF-0.10890959203243256
aF-0.053980451077222824
aF-0.10088670253753662
aF0.07694724947214127
aF-0.04662198945879936
aF-0.11489520221948624
aF-0.1283920854330063
aF-0.1295003890991211
aF0.1027117371559143
aF-0.14907246828079224
aF-0.08793120086193085
aF-0.06427662074565887
aF-0.08582692593336105
aF-0.14320729672908783
aF-0.0433022603392601
aF-0.10508395731449127
aF-0.02863975614309311
aF-0.15543876588344574
aF-0.11561259627342224
aF-0.10374949127435684
aF0.0805327296257019
aF0.023015430197119713
aF-0.03118937462568283
aF-0.001562771969474852
aF0.02867705188691616
aF-0.14688850939273834
aF0.03207399696111679
aF0.03350383788347244
aF0.08046042919158936
aF-0.18455402553081512
aF-0.1791631281375885
aF-0.14284124970436096
aF-0.17064397037029266
aF-0.16923105716705322
aF0.02158108912408352
aF-0.07645232230424881
aF-0.12389335036277771
aF-0.01298741064965725
aF0.10429123044013977
aF-0.08599349856376648
aF0.08610754460096359
aF0.014616016298532486
aF-0.013440370559692383
aF0.0242934413254261
aF0.16365516185760498
aF-0.026944264769554138
aF0.05287383869290352
aF0.03623650223016739
aF-0.05276912450790405
aF0.04828914999961853
aF-0.10299866646528244
aF-0.04891233146190643
aF-0.02172260917723179
aF-0.02205771952867508
aF-0.12440875917673111
aF-0.014860391616821289
aF-0.09879457950592041
aF0.14031627774238586
aF-0.1379413902759552
aF-0.1367015242576599
aF-0.04118737950921059
aF-0.04405282810330391
aF-0.046364981681108475
aF-0.118126779794693
aF-0.17340952157974243
aF0.06148027256131172
aF-0.11243157833814621
aF-0.09576116502285004
aF-0.1021588072180748
aF-0.05633058771491051
aF-0.07356108725070953
aF-0.14187780022621155
aF-0.16854512691497803
aF-0.026957035064697266
aF-0.17305012047290802
aF-0.09375317394733429
aF-0.12949760258197784
aF-0.05927508324384689
aF-0.0917544737458229
aF-0.10098067671060562
aF-0.12117496132850647
aF-0.07888424396514893
aF-0.04433003067970276
aF-0.16206622123718262
aF-0.04442005604505539
aF-0.08427056670188904
aF-0.1384178251028061
aF-0.17761103808879852
aF-0.028697259724140167
aF-0.13265058398246765
aF-0.09174669533967972
aF-0.029531016945838928
aF-0.07988913357257843
aF-0.09253454208374023
aF-0.12280555069446564
aF-0.14617076516151428
aF-0.13000889122486115
aF-0.13855315744876862
aF0.04977185279130936
aF-0.12056585401296616
aF-0.1307227909564972
aF-0.13686716556549072
aF-0.15258577466011047
aF-0.07050865143537521
aF-0.08126530796289444
aF-0.08993101119995117
aF-0.07252264022827148
aF-0.04789196699857712
aF-0.13008593022823334
aF-0.05820706859230995
aF-0.18546944856643677
aF-0.1417091190814972
aF-0.1434042900800705
aF-0.1745014190673828
aF-0.022311903536319733
aF-0.06872929632663727
aF-0.06911487132310867
aF-0.08822600543498993
aF-0.09566303342580795
aF-0.01002444513142109
aF-0.1712835431098938
aF-0.031469717621803284
aF0.03562972694635391
aF0.12758950889110565
aF-0.038522642105817795
aF0.06840217858552933
aF-0.14004118740558624
aF-0.18231311440467834
aF-0.06428718566894531
aF-0.05991456285119057
aF-0.1488373875617981
aF0.0026223231106996536
aF-0.09323292225599289
aF-0.23473288118839264
aF-0.09075040370225906
aF-0.09880973398685455
aF-0.16647884249687195
aF-0.2859521508216858
aF-0.17780953645706177
aF-0.1250934898853302
aF-0.36173221468925476
aF-0.13303756713867188
aF-0.012988093309104443
aF-0.3877449631690979
aF-0.3529673218727112
aF-0.38998302817344666
aF-0.19335244596004486
aF-0.17244036495685577
aF-0.15635424852371216
aF-0.3137688934803009
aF-0.08742063492536545
aF0.07934782654047012
aF0.015385732054710388
aF-0.13542932271957397
aF0.024808254092931747
aF-0.06039315089583397
aF0.05190489441156387
aF-0.40136417746543884
aF-0.43484893441200256
aF-0.206976518034935
aF-0.2171250581741333
aF-0.013787411153316498
aF-0.16711711883544922
aF-0.10661501437425613
aF-0.19994524121284485
aF-0.018047716468572617
aF-0.15506276488304138
aF-0.17777565121650696
aF0.036864906549453735
aF0.5129868388175964
aF-0.1285736858844757
aF0.004395920783281326
aF-0.24706193804740906
aF-0.19093316793441772
aF-0.5451341867446899
aF0.3068963587284088
aF-0.06948788464069366
aF-0.10272824764251709
aF-0.022989027202129364
aF0.039844363927841187
aF-0.5728433132171631
aF0.1863449513912201
aF-0.1157367080450058
aF-0.2931475043296814
aF-0.16483117640018463
aF0.16983741521835327
aF-0.18695732951164246
aF-0.265694797039032
aF0.05150393024086952
aF-0.2988482713699341
aF-0.04508843645453453
aF-0.22599026560783386
aF-0.05933322012424469
aF0.0515371672809124
aF-0.0591726191341877
aF-0.11810465157032013
aF-0.1264590620994568
aF-0.1068255752325058
aF-0.056766077876091
aF-0.13252539932727814
aF-0.03752793371677399
aF-0.1601579189300537
aF-0.04321840777993202
aF-0.17818261682987213
aF-0.14889630675315857
aF-0.18256455659866333
aF-0.08735918253660202
aF-0.06806093454360962
aF-0.0890752524137497
aF-0.19504296779632568
aF-0.03427591174840927
aF-0.028870366513729095
aF-0.03424270451068878
aF-0.0935632586479187
aF0.0016117272898554802
aF-0.26148897409439087
aF-0.30634361505508423
aF-0.17703212797641754
aF-0.2050047069787979
aF-0.04954221099615097
aF0.004364310763776302
aF-0.10632606595754623
aF-0.14864107966423035
aF-0.04997381567955017
aF-0.03842826932668686
aF-0.19519099593162537
aF0.02722795121371746
aF-0.11831869930028915
aF-0.09746931493282318
aF-0.1024465560913086
aF-0.11737558990716934
aF-0.1708209216594696
aF-0.12250318378210068
aF-0.057681966572999954
aF-0.16202428936958313
aF-0.1412436068058014
aF-0.17641961574554443
aF-0.17959201335906982
aF-0.15512052178382874
aF-0.1539505124092102
aF-0.12307021021842957
aF-0.03500629961490631
aF-0.13124407827854156
aF-0.17302656173706055
aF-0.1808232069015503
aF-0.1862485259771347
aF-0.10673126578330994
aF0.08331786096096039
aF-0.030172906816005707
aF-0.08016896992921829
aF-0.035048387944698334
aF0.39525821805000305
aF-0.25862205028533936
aF0.01325619500130415
aF-0.09169186651706696
aF-0.12533195316791534
aF-0.031985461711883545
aF-0.029386669397354126
aF-0.10762374848127365
atp53
Rp54
I0
(L50L
L128L
tp55
(L128L
L1L
tp56
tp57
Rp58
tp59
Rp60
(I01
I00
Ntp61
baa(lp62
S'bias'
p63
ag48
(g49
g50
(g51
((lp64
F-0.168268084526062
aF-0.049474455416202545
aF-0.05736037716269493
aF-0.05203713849186897
aF-0.05276494845747948
aF-0.08346886932849884
aF-0.10082478821277618
aF-0.0425848551094532
aF-0.08648566156625748
aF-0.17936944961547852
aF-0.03264675289392471
aF0.02278720960021019
aF-0.05258335545659065
aF-0.1523009091615677
aF-0.10515419393777847
aF-0.17234012484550476
aF-0.013923227787017822
aF-0.102028027176857
aF-0.08515128493309021
aF-0.13448691368103027
aF-0.11781693994998932
aF-0.15563298761844635
aF-0.14908765256404877
aF-0.06485901772975922
aF-0.12792067229747772
aF0.07291922718286514
aF-0.15891286730766296
aF-0.166337251663208
aF-0.07673095911741257
aF-0.18684473633766174
aF-0.013052329421043396
aF-0.16513130068778992
aF-0.05889364331960678
aF-0.056847427040338516
aF-0.1327803134918213
aF-0.1310099959373474
aF-0.023353934288024902
aF-0.028333701193332672
aF-0.09205729514360428
aF-0.01691378280520439
aF-0.04722728580236435
aF-0.11340416222810745
aF-0.10703650861978531
aF-0.06283104419708252
aF-0.1715289205312729
aF0.00717237638309598
aF-0.024198468774557114
aF-0.09064722806215286
aF-0.16720259189605713
aF-0.14452692866325378
atp65
Rp66
I0
(L50L
tp67
(L1L
tp68
tp69
Rp70
tp71
Rp72
(I01
I00
Ntp73
baatp74
Rp75
sS'_buffers'
p76
g7
((lp77
tp78
Rp79
sS'training'
p80
I01
sbaa(lp81
S'lin2'
p82
ag0
(g26
g2
Ntp83
Rp84
(dp85
g6
g7
((lp86
tp87
Rp88
sg11
g7
((lp89
tp90
Rp91
sg15
g17
sg36
I50
sg37
I9
sg18
g7
((lp92
tp93
Rp94
sg22
g7
((lp95
tp96
Rp97
sg44
g7
((lp98
(lp99
g47
ag48
(g49
g50
(g51
((lp100
F0.03097652830183506
aF0.012622572481632233
aF0.1564027965068817
aF0.16548293828964233
aF0.1796054244041443
aF0.25149187445640564
aF0.12670406699180603
aF0.09996034950017929
aF-0.08093541115522385
aF0.12332963943481445
aF0.05365024134516716
aF0.18192166090011597
aF0.04664549604058266
aF-0.11457425355911255
aF0.06559263169765472
aF0.0024459362030029297
aF0.11969850212335587
aF0.04936517775058746
aF0.06976385414600372
aF0.04007794335484505
aF0.06752228736877441
aF0.20045611262321472
aF-0.13644574582576752
aF0.04536736384034157
aF0.011561453342437744
aF-0.030206797644495964
aF-0.02435612678527832
aF0.10382683575153351
aF0.041411157697439194
aF0.18579262495040894
aF0.06149853393435478
aF0.2751137912273407
aF0.1634514331817627
aF-0.04855535924434662
aF-0.03833721578121185
aF0.34997180104255676
aF0.020475255325436592
aF0.08937124907970428
aF-0.003992125391960144
aF0.2625550627708435
aF0.12369333207607269
aF0.12477955967187881
aF0.05454069375991821
aF0.2980179488658905
aF0.018923930823802948
aF0.25804954767227173
aF0.17317670583724976
aF0.07057962566614151
aF0.05846751481294632
aF0.13911017775535583
aF0.0038625269662588835
aF0.07647192478179932
aF-0.017331942915916443
aF0.31805717945098877
aF0.19947801530361176
aF0.04310595244169235
aF-0.05941404402256012
aF0.10948215425014496
aF0.007008849643170834
aF0.06511767208576202
aF0.1635412871837616
aF0.28024306893348694
aF0.192876398563385
aF-0.004488617181777954
aF0.15850353240966797
aF0.17175401747226715
aF0.12722334265708923
aF0.09720767289400101
aF0.09452980011701584
aF-0.01512085646390915
aF0.2083447128534317
aF0.20580163598060608
aF0.03124353289604187
aF0.2090691179037094
aF-0.028168778866529465
aF0.1099856048822403
aF0.05232575163245201
aF0.17398132383823395
aF0.10855953395366669
aF0.2291070818901062
aF0.04112938791513443
aF0.07887689769268036
aF0.10213088244199753
aF0.001047351281158626
aF-0.08012321591377258
aF0.037766117602586746
aF0.0401659794151783
aF0.11870044469833374
aF0.06403125822544098
aF0.037457484751939774
aF0.14954152703285217
aF0.17890024185180664
aF0.23751340806484222
aF0.13146306574344635
aF0.03186140954494476
aF0.26833367347717285
aF0.1642506867647171
aF0.20425479114055634
aF0.045630455017089844
aF0.13426010310649872
aF0.04920275881886482
aF0.018612196668982506
aF0.09236399829387665
aF0.12637557089328766
aF0.16533800959587097
aF0.1295166164636612
aF-0.04568471014499664
aF0.01539032906293869
aF0.06071126461029053
aF0.12365446984767914
aF0.14398130774497986
aF0.17602598667144775
aF0.008932828903198242
aF-0.10153884440660477
aF0.1701158583164215
aF0.019519701600074768
aF0.11334159970283508
aF0.09593857824802399
aF-0.08752581477165222
aF0.11758620291948318
aF0.09488216042518616
aF0.0910329595208168
aF0.07592963427305222
aF0.05051039904356003
aF0.13111911714076996
aF0.07667657732963562
aF-0.0009930587839335203
aF0.2785577178001404
aF0.11294490098953247
aF-0.0018030256032943726
aF0.1496199071407318
aF0.2882205545902252
aF-0.004454433917999268
aF-0.0015797987580299377
aF-0.12961463630199432
aF0.2135617882013321
aF0.00017298264720011503
aF-0.08516960591077805
aF-0.022430017590522766
aF0.04656114801764488
aF0.007043734192848206
aF0.10794154554605484
aF0.1631051003932953
aF0.21072573959827423
aF-0.012507140636444092
aF0.25617438554763794
aF0.168694868683815
aF0.00504998117685318
aF0.11800146847963333
aF0.03668392449617386
aF0.08089927583932877
aF0.08149763941764832
aF0.21359378099441528
aF0.19558531045913696
aF0.18474800884723663
aF-0.014057233929634094
aF0.026330269873142242
aF0.034493833780288696
aF0.03577073663473129
aF0.03129012882709503
aF0.012144237756729126
aF0.06883333623409271
aF0.06358519196510315
aF0.03338489681482315
aF0.17100225389003754
aF0.15380457043647766
aF0.18354596197605133
aF-0.07037926465272903
aF0.02727341279387474
aF0.21322014927864075
aF0.14413289725780487
aF0.1883152723312378
aF0.043266553431749344
aF0.18463265895843506
aF0.11740526556968689
aF0.015245149843394756
aF-0.024380667135119438
aF0.14757443964481354
aF0.07949911057949066
aF0.21032559871673584
aF0.15598458051681519
aF-0.02963831275701523
aF-0.03118351846933365
aF0.03180662542581558
aF-0.12411454319953918
aF0.12161561101675034
aF-0.027121856808662415
aF0.1359117180109024
aF-0.020145446062088013
aF0.227043017745018
aF0.048802271485328674
aF0.2238319367170334
aF0.0039370134472846985
aF0.3028865456581116
aF0.11563105136156082
aF0.2736019790172577
aF0.1684391051530838
aF0.2361758053302765
aF-0.06776781380176544
aF0.13771086931228638
aF0.009296834468841553
aF0.04404434189200401
aF0.0010248646140098572
aF0.20394347608089447
aF0.17388345301151276
aF0.2295835018157959
aF0.02075946517288685
aF0.009491683915257454
aF0.07024089992046356
aF-0.00557921826839447
aF0.0369681715965271
aF0.24745450913906097
aF0.034780874848365784
aF0.10602227598428726
aF0.16303956508636475
aF0.002035856246948242
aF-0.008950985968112946
aF0.044399444013834
aF-0.1391439288854599
aF-0.01910954713821411
aF0.06724601984024048
aF0.19110824167728424
aF0.07988990843296051
aF0.06887072324752808
aF-0.10986128449440002
aF0.10172732174396515
aF-0.03518221899867058
aF0.19825391471385956
aF-0.01221919059753418
aF-0.02926848828792572
aF-0.022458791732788086
aF0.11617062985897064
aF0.06096949800848961
aF0.18028448522090912
aF-0.1259271204471588
aF0.09581072628498077
aF-0.023737730458378792
aF0.007857121527194977
aF0.053779829293489456
aF0.13276100158691406
aF0.11487552523612976
aF0.015274256467819214
aF0.07921566814184189
aF0.22301019728183746
aF0.032893382012844086
aF0.26052024960517883
aF0.17171569168567657
aF0.03918292000889778
aF0.03513598069548607
aF0.1373922973871231
aF-0.052322644740343094
aF0.05961401015520096
aF-0.14820963144302368
aF0.03340921550989151
aF0.1793823391199112
aF0.08057589828968048
aF-0.03828543797135353
aF-0.11431518197059631
aF-0.0800270140171051
aF0.13587236404418945
aF-0.13286247849464417
aF0.010374662466347218
aF0.0051598697900772095
aF0.05228189378976822
aF0.16551904380321503
aF-0.12097722291946411
aF-0.20351994037628174
aF-0.10929008573293686
aF0.016122564673423767
aF-0.16674354672431946
aF0.09675268083810806
aF0.18273666501045227
aF-0.08227488398551941
aF0.02312227338552475
aF-0.11080288887023926
aF-0.10207638144493103
aF-0.11325708031654358
aF0.14689838886260986
aF-0.13070465624332428
aF-0.023121334612369537
aF-0.01833420991897583
aF0.1122603714466095
aF-0.11431950330734253
aF0.06467918306589127
aF0.09104906767606735
aF0.06883370876312256
aF0.11979538947343826
aF-0.0456228032708168
aF-0.013304024934768677
aF0.2184988409280777
aF-0.1544630527496338
aF0.01820956915616989
aF-0.056953687220811844
aF-0.07570984214544296
aF-0.18796095252037048
aF0.2625002861022949
aF0.1661178022623062
aF-0.019140169024467468
aF-0.10841795802116394
aF0.13065148890018463
aF-0.04957745224237442
aF-0.07257702946662903
aF0.191827654838562
aF0.025760458782315254
aF0.18398739397525787
aF0.2711465060710907
aF-0.08717721700668335
aF0.1291731745004654
aF-0.10697517544031143
aF-0.007262552622705698
aF0.2265854775905609
aF0.06221127510070801
aF0.09273657202720642
aF-0.07842136919498444
aF0.16878272593021393
aF0.0011552348732948303
aF0.11809302866458893
aF0.001625947654247284
aF-0.005857178475707769
aF0.16064026951789856
aF0.09828953444957733
aF0.17607498168945312
aF-0.1319873183965683
aF0.13142968714237213
aF-0.05354742333292961
aF0.054744504392147064
aF-0.11623021960258484
aF0.0715726763010025
aF0.05593108385801315
aF0.1566493958234787
aF0.05178804695606232
aF0.1836492270231247
aF0.20807777345180511
aF-0.08004375547170639
aF0.0800715908408165
aF0.030688682571053505
aF0.10082535445690155
aF0.009264752268791199
aF0.04958776384592056
aF0.13749437034130096
aF0.08992960304021835
aF0.07031640410423279
aF0.14636138081550598
aF0.18514062464237213
aF0.10350165516138077
aF0.2687745988368988
aF0.16666707396507263
aF0.025033220648765564
aF0.029614241793751717
aF0.13488462567329407
aF-0.026403576135635376
aF0.03605346381664276
aF-0.03999430686235428
aF0.22700628638267517
aF0.18020449578762054
aF0.23088501393795013
aF0.11452295631170273
aF0.10990508645772934
aF0.06134222820401192
aF0.0064913127571344376
aF0.0030572861433029175
aF0.14239615201950073
aF0.05723461136221886
aF0.05852163955569267
aF0.16341841220855713
aF0.1101328507065773
aF0.06726681441068649
aF0.027858590707182884
aF-0.08563965559005737
aF0.16078056395053864
aF0.05173027142882347
aF0.18725968897342682
aF-0.0905768871307373
aF0.016387246549129486
aF-0.06520470976829529
aF0.048495158553123474
aF0.06124848127365112
aF0.08527923375368118
aF0.08193421363830566
aF0.0897539034485817
aF0.021942153573036194
aF0.17847345769405365
aF0.23376065492630005
aF0.057929348200559616
aF0.046783335506916046
aF0.13829798996448517
aF0.0480722077190876
aF-0.008100219070911407
aF0.13189521431922913
aF0.23136712610721588
aF0.06148384511470795
aF0.051786601543426514
aF0.06582111120223999
aF0.14398105442523956
aF0.009324252605438232
aF0.2584994435310364
aF0.17026592791080475
aF0.08166545629501343
aF-0.01504382211714983
aF0.14190378785133362
aF-0.03909222409129143
aF0.07343237847089767
aF0.07222844660282135
aF0.12381599843502045
aF0.17396709322929382
aF0.297964483499527
aF0.018089741468429565
aF0.06553628295660019
aF-0.1393536478281021
aF0.13216720521450043
aF0.21047252416610718
aF0.22604310512542725
aF0.030871428549289703
aF-0.044872548431158066
aF0.16960833966732025
aF0.23972836136817932
aF0.21658244729042053
aF-0.045203544199466705
aF0.032538674771785736
aF0.17986875772476196
aF0.1555098444223404
aF0.17336708307266235
aF0.02621695026755333
aF-0.02941865473985672
aF-0.11667659878730774
aF0.02051996812224388
aF0.030276350677013397
aF0.22690898180007935
aF-0.004181332886219025
aF0.22557145357131958
aF0.22930240631103516
aF0.23469050228595734
aF0.12649458646774292
aF0.21518145501613617
aF-0.12041875720024109
aF0.05125310271978378
aF0.0023942217230796814
aF0.017542636021971703
aF0.06043199449777603
aF0.14464841783046722
aF0.14222651720046997
aF-0.01216667890548706
aF0.1299804449081421
aF0.11048262566328049
aF-0.04099112004041672
aF0.2575719356536865
aF0.16468849778175354
aF-0.016628094017505646
aF-0.12274324148893356
aF0.13616882264614105
atp101
Rp102
I0
(L9L
L50L
tp103
(L50L
L1L
tp104
tp105
Rp106
tp107
Rp108
(I01
I00
Ntp109
baa(lp110
g63
ag48
(g49
g50
(g51
((lp111
F6.840162754058838
aF6.850043773651123
aF6.436965465545654
aF6.79453182220459
aF7.074021816253662
aF7.249517440795898
aF6.432519435882568
aF7.105910301208496
aF6.472440719604492
atp112
Rp113
I0
(L9L
tp114
(L1L
tp115
tp116
Rp117
tp118
Rp119
(I01
I00
Ntp120
baatp121
Rp122
sg76
g7
((lp123
tp124
Rp125
sg80
I01
sbaatp126
Rp127
sg44
g7
((lp128
tp129
Rp130
sg76
g7
((lp131
tp132
Rp133
sg80
I01
sb.