(lp0
F17500.0
aF9300.0
aF32300.0
aF32600.0
aF18300.0
aF25300.0
aF15300.0
aF48000.0
aF35100.0
aF25000.0
aF14900.0
aF18200.0
aF20200.0
aF22000.0
aF19700.0
aF20900.0
aF10300.0
aF14500.0
aF19900.0
aF13700.0
aF13700.0
aF39600.0
aF15800.0
aF8600.0
aF25900.0
aF24100.0
aF19900.0
aF18200.0
aF17300.0
aF16300.0
aF21600.0
aF31600.0
aF23400.0
aF31500.0
aF10000.0
aF22100.0
aF15700.0
aF31200.0
aF28100.0
aF9300.0
aF29000.0
aF30400.0
aF24000.0
aF18700.0
aF14900.0
aF14200.0
aF14000.0
aF17500.0
aF13000.0
aF21100.0
aF13700.0
aF21000.0
aF21600.0
aF25700.0
aF17400.0
aF23900.0
aF16500.0
aF7100.0
aF29300.0
aF25300.0
aF25800.0
aF11300.0
aF23900.0
aF19200.0
aF21000.0
aF18000.0
aF25100.0
aF15600.0
aF20000.0
aF24000.0
aF17800.0
aF9100.0
aF16300.0
aF18400.0
aF25300.0
aF17000.0
aF45700.0
aF20800.0
aF13100.0
aF14500.0
aF21900.0
aF34900.0
aF30800.0
aF15400.0
aF26700.0
aF16000.0
aF23400.0
aF25700.0
aF14100.0
aF16200.0
aF8400.0
aF21400.0
aF22700.0
aF21500.0
aF22900.0
aF33800.0
aF24400.0
aF16500.0
aF17200.0
aF20300.0
aF24200.0
aF38000.0
aF24400.0
aF8100.0
aF25200.0
aF16300.0
aF30200.0
aF14100.0
aF24200.0
aF18900.0
aF21700.0
aF37700.0
aF17800.0
aF24100.0
aF19000.0
aF21800.0
aF27700.0
aF19800.0
aF30200.0
aF29100.0
aF37000.0
aF23300.0
aF23600.0
aF19500.0
aF20700.0
aF23600.0
aF14900.0
aF27400.0
aF23900.0
aF19800.0
aF8800.0
aF11000.0
aF37100.0
aF14600.0
aF31600.0
aF17700.0
aF40400.0
aF15000.0
aF18100.0
aF17600.0
aF8300.0
aF15900.0
aF16800.0
aF28300.0
aF27000.0
aF17900.0
aF10000.0
aF17100.0
aF14500.0
aF13900.0
aF24000.0
aF20200.0
aF31300.0
aF16000.0
aF7100.0
aF23900.0
aF20100.0
aF34700.0
aF12300.0
aF20700.0
aF33100.0
aF16000.0
aF25000.0
aF27400.0
aF15700.0
aF34500.0
aF22200.0
aF17800.0
aF39800.0
aF27200.0
aF12700.0
aF14300.0
aF29600.0
aF15900.0
aF27400.0
aF12600.0
aF24100.0
aF18600.0
aF16000.0
aF23800.0
aF22500.0
aF18300.0
aF19500.0
aF14200.0
aF25500.0
aF25700.0
aF12700.0
aF20700.0
aF20100.0
aF36300.0
aF18800.0
aF24600.0
aF21800.0
aF16100.0
aF20100.0
aF23800.0
aF17100.0
aF16800.0
aF19700.0
aF9000.0
aF9100.0
aF16500.0
aF12900.0
aF10200.0
aF14900.0
aF20200.0
aF24000.0
aF22200.0
aF20300.0
aF21300.0
aF21500.0
aF21500.0
aF18600.0
aF21800.0
aF19000.0
aF14700.0
aF27600.0
aF26000.0
aF13200.0
aF15700.0
aF26600.0
aF19000.0
aF16800.0
aF12300.0
aF13100.0
aF21600.0
aF22100.0
aF23200.0
aF12700.0
aF23800.0
aF13600.0
aF14400.0
aF20700.0
aF22500.0
aF40500.0
aF13200.0
aF17900.0
aF11400.0
aF20000.0
aF47500.0
aF26500.0
aF10100.0
aF31500.0
aF8600.0
aF22700.0
aF47300.0
aF16800.0
aF18600.0
aF25400.0
aF28700.0
aF28100.0
aF23100.0
aF23300.0
aF17000.0
aF19700.0
aF36400.0
aF19100.0
aF29100.0
aF9600.0
aF22100.0
aF27600.0
aF29900.0
aF18000.0
aF37200.0
aF20600.0
aF31300.0
aF29000.0
aF27200.0
aF16700.0
aF15700.0
aF29800.0
aF20200.0
aF10800.0
aF44900.0
aF26100.0
aF27100.0
aF19900.0
aF12200.0
aF13300.0
aF19000.0
aF24100.0
aF29800.0
aF16700.0
aF14500.0
aF19500.0
aF10700.0
aF24100.0
aF18200.0
aF26700.0
aF32600.0
aF19300.0
aF15800.0
aF10500.0
aF9100.0
aF18300.0
aF13000.0
aF10000.0
aF34600.0
aF16100.0
aF21900.0
aF16400.0
aF9000.0
aF19700.0
aF29800.0
aF19400.0
aF17000.0
aF15300.0
aF11800.0
aF27600.0
aF31000.0
aF24700.0
aF20400.0
aF35600.0
aF17600.0
aF10300.0
aF9900.0
aF16300.0
aF29000.0
aF17100.0
aF23500.0
aF17600.0
aF6900.0
aF29600.0
aF18000.0
aF30600.0
aF22800.0
aF22200.0
aF27600.0
aF15700.0
aF18200.0
aF20100.0
aF30600.0
aF16000.0
aF15300.0
aF18900.0
aF23800.0
aF34000.0
aF13300.0
aF20500.0
aF32100.0
aF17900.0
aF25000.0
aF23500.0
aF15600.0
aF23400.0
aF20200.0
aF28700.0
aF23700.0
aF28800.0
aF25700.0
aF14600.0
aF18700.0
aF18200.0
aF10600.0
aF19700.0
aF12000.0
aF2900.0
aF14000.0
aF13600.0
aF19900.0
aF25100.0
aF6200.0
aF19300.0
aF14300.0
aF27800.0
aF12600.0
aF27800.0
aF19600.0
aF11200.0
aF27500.0
aF19900.0
aF23600.0
aF28600.0
aF21000.0
aF19800.0
aF16300.0
aF38500.0
aF30000.0
aF15200.0
aF18700.0
aF31100.0
aF18900.0
aF17300.0
aF15300.0
aF22000.0
aF23300.0
aF10100.0
aF6900.0
aF14700.0
aF28200.0
aF18600.0
aF7300.0
aF23200.0
aF20400.0
aF11800.0
aF26700.0
aF29600.0
aF17400.0
aF8700.0
aF10000.0
aF10200.0
aF9500.0
aF24100.0
aF17200.0
aF26600.0
aF16800.0
aF23300.0
aF17700.0
aF22900.0
aF11600.0
aF28200.0
aF20900.0
aF34600.0
aF23800.0
aF26400.0
aF23600.0
aF12100.0
aF20400.0
aF18600.0
aF17900.0
aF21500.0
aF26900.0
aF26200.0
aF7500.0
aF19300.0
aF19300.0
aF27900.0
aF15900.0
aF22100.0
aF16000.0
aF19600.0
aF18100.0
aF6200.0
aF12900.0
aF38700.0
aF16200.0
aF16700.0
aF35800.0
aF25000.0
aF17100.0
aF21900.0
aF44500.0
aF19900.0
aF17500.0
aF29800.0
aF23300.0
aF39100.0
aF26100.0
aF16900.0
aF16300.0
aF32800.0
aF7400.0
aF18600.0
aF15300.0
aF13300.0
aF14600.0
aF18300.0
aF26400.0
aF16600.0
aF20300.0
aF20900.0
aF8200.0
aF15300.0
aF16800.0
aF16600.0
aF26400.0
aF31100.0
aF20000.0
aF22800.0
aF11100.0
aF33000.0
aF26500.0
aF21500.0
aF15600.0
aF19400.0
aF9000.0
aF24100.0
aF19200.0
aF20900.0
aF26800.0
aF27000.0
aF16300.0
aF26400.0
aF17600.0
aF19000.0
aF10000.0
aF24600.0
aF15500.0
aF28200.0
aF27100.0
aF22900.0
aF29500.0
aF9100.0
aF24500.0
aF18500.0
aF26500.0
aF14800.0
aF17400.0
aF13900.0
aF25300.0
aF12300.0
aF24100.0
aF31800.0
aF12000.0
aF23500.0
aF24400.0
aF15500.0
aF12400.0
aF18200.0
aF14000.0
aF11600.0
aF13700.0
aF7200.0
aF24700.0
aF16400.0
aF25400.0
aF27300.0
aF26700.0
aF13400.0
aF9200.0
aF26200.0
aF16600.0
aF17900.0
aF29600.0
aF23200.0
aF9200.0
aF9200.0
aF19100.0
aF34400.0
aF28100.0
aF25400.0
aF14500.0
aF14600.0
aF17500.0
aF21700.0
aF19400.0
aF25800.0
aF31600.0
aF32100.0
aF8400.0
aF11300.0
aF16900.0
aF6500.0
aF15700.0
aF17000.0
aF15700.0
aF13500.0
aF13000.0
aF16200.0
aF21200.0
aF18700.0
aF19500.0
aF10300.0
aF29500.0
aF13100.0
aF19900.0
aF30400.0
aF21300.0
aF28700.0
aF37600.0
aF18100.0
aF26500.0
aF17200.0
aF20300.0
aF19000.0
aF18100.0
aF27800.0
aF21600.0
aF26400.0
aF19800.0
aF25300.0
aF22500.0
aF16600.0
aF13400.0
aF29100.0
aF16700.0
aF31000.0
aF23000.0
aF18400.0
aF10400.0
aF22000.0
aF23200.0
aF19500.0
aF21600.0
aF21700.0
aF22100.0
aF21500.0
aF18000.0
aF14200.0
aF22800.0
aF26700.0
aF10900.0
aF19200.0
aF30000.0
aF14000.0
aF21600.0
aF20300.0
aF34200.0
aF18800.0
aF30100.0
aF16700.0
aF27800.0
aF12200.0
aF24500.0
aF15500.0
aF19000.0
aF6000.0
aF26700.0
aF15300.0
aF19600.0
aF20000.0
aF15800.0
aF17100.0
aF18000.0
aF29800.0
aF18100.0
aF23600.0
aF12800.0
aF18300.0
aF21800.0
aF17500.0
aF13900.0
aF19500.0
aF30800.0
aF10100.0
aF9600.0
aF26900.0
aF15900.0
aF9200.0
aF20100.0
aF13500.0
aF6400.0
aF24100.0
aF7300.0
aF16400.0
aF21700.0
aF21700.0
aF31600.0
aF20700.0
aF16800.0
aF13100.0
aF15200.0
aF13400.0
aF13700.0
aF13900.0
aF17800.0
aF7200.0
aF7300.0
aF30000.0
aF24400.0
aF18200.0
aF13700.0
aF24000.0
aF19300.0
aF19200.0
aF24900.0
aF21600.0
aF19700.0
aF26400.0
aF26300.0
aF20300.0
aF20500.0
aF25700.0
aF25700.0
aF13700.0
aF16800.0
aF20700.0
aF32200.0
aF25600.0
aF19700.0
aF19400.0
aF27400.0
aF19000.0
aF12700.0
aF13700.0
aF28700.0
aF31500.0
aF36000.0
aF17900.0
aF22800.0
aF26000.0
aF14300.0
aF28500.0
aF31200.0
aF19900.0
aF21800.0
aF19400.0
aF16200.0
aF31000.0
aF17300.0
aF19300.0
aF23200.0
aF15900.0
aF19100.0
aF25900.0
aF22100.0
aF15400.0
aF20500.0
aF18400.0
aF24700.0
aF30200.0
aF35000.0
aF10700.0
aF25600.0
aF16900.0
aF22100.0
aF12500.0
aF29000.0
aF18600.0
aF32700.0
aF21300.0
aF19000.0
aF27500.0
aF13200.0
aF14600.0
aF15000.0
aF17100.0
aF15000.0
aF16300.0
aF16000.0
aF31500.0
aF23600.0
aF17700.0
aF28800.0
aF7300.0
aF21600.0
aF21700.0
aF23400.0
aF22500.0
aF36600.0
aF21700.0
aF16500.0
aF31000.0
aF21000.0
aF18900.0
aF17200.0
aF26200.0
aF20100.0
aF12600.0
aF24700.0
aF20300.0
aF14000.0
aF22000.0
aF25300.0
aF24000.0
aF16800.0
aF16400.0
aF22000.0
aF21200.0
aF8800.0
aF31300.0
aF25900.0
aF21800.0
aF25000.0
aF18700.0
aF29700.0
aF33100.0
aF28700.0
aF15800.0
aF17200.0
aF23500.0
aF31700.0
aF25400.0
aF8900.0
aF20200.0
aF23300.0
aF39100.0
aF29700.0
aF13900.0
aF30000.0
aF26800.0
aF28000.0
aF19100.0
aF22800.0
aF26000.0
aF19800.0
aF15700.0
aF24600.0
aF15800.0
aF19000.0
aF16100.0
aF15600.0
aF48900.0
aF35800.0
aF18200.0
aF35200.0
aF27400.0
aF28100.0
aF27200.0
aF18400.0
aF28500.0
aF33700.0
aF39900.0
aF30400.0
aF26300.0
aF35200.0
aF27000.0
aF37100.0
aF15300.0
aF17800.0
aF7900.0
aF24000.0
aF13800.0
aF8800.0
aF9100.0
aF14200.0
aF19500.0
aF4100.0
aF7700.0
aF22500.0
aF12900.0
aF18000.0
aF27000.0
aF28800.0
aF15400.0
aF14900.0
aF23200.0
aF28600.0
aF22600.0
aF30400.0
aF24100.0
aF20000.0
aF14900.0
aF9200.0
aF33700.0
aF19000.0
aF17400.0
aF12400.0
aF12000.0
aF29700.0
aF20100.0
aF18900.0
aF14300.0
aF8300.0
aF12900.0
aF14600.0
aF26200.0
aF47500.0
aF21600.0
aF25400.0
aF11300.0
aF26400.0
aF25600.0
aF17000.0
aF24500.0
aF26700.0
aF17700.0
aF7900.0
aF25700.0
aF10200.0
aF9000.0
aF23900.0
aF25300.0
aF15000.0
aF30300.0
aF19700.0
aF17700.0
aF9500.0
aF9600.0
aF13500.0
aF18100.0
aF21400.0
aF16100.0
aF32100.0
aF22900.0
aF22900.0
aF19500.0
aF18900.0
aF18200.0
aF28600.0
aF24800.0
aF28300.0
aF22900.0
aF29300.0
aF48200.0
aF24900.0
aF27300.0
aF21500.0
aF15100.0
aF21800.0
aF19200.0
aF27300.0
aF48700.0
aF11500.0
aF26500.0
aF30200.0
aF29700.0
aF9400.0
aF36600.0
aF27400.0
aF17000.0
aF24500.0
aF25100.0
aF27300.0
aF24200.0
aF43000.0
aF22100.0
aF28100.0
aF14600.0
aF10500.0
aF15800.0
aF26200.0
aF11500.0
aF30300.0
aF24600.0
aF27900.0
aF20600.0
aF21500.0
aF19200.0
aF16700.0
aF17200.0
aF16400.0
aF20200.0
aF20900.0
aF10100.0
aF12800.0
aF14500.0
aF6900.0
aF23900.0
aF24800.0
aF25500.0
aF15900.0
aF20500.0
aF35800.0
aF22800.0
aF20200.0
aF26300.0
aF10900.0
aF14400.0
aF28800.0
aF21500.0
aF7100.0
aF16400.0
aF17600.0
aF22800.0
aF19400.0
aF26900.0
aF17400.0
aF21700.0
aF22000.0
aF9800.0
aF19200.0
aF21800.0
aF8500.0
aF16600.0
aF19400.0
aF32400.0
aF26000.0
aF18700.0
aF14200.0
aF25900.0
aF19300.0
aF21500.0
aF15100.0
aF21400.0
aF14700.0
aF13300.0
aF13300.0
aF46500.0
aF16100.0
aF24300.0
aF17900.0
aF26200.0
aF11700.0
aF15100.0
aF29700.0
aF18600.0
aF15700.0
aF16900.0
aF13300.0
aF21900.0
aF17500.0
aF9900.0
aF14200.0
aF7900.0
aF8800.0
aF5000.0
aF15600.0
aF25200.0
aF31800.0
aF20800.0
aF17000.0
aF19700.0
aF37000.0
aF19900.0
aF20100.0
aF15500.0
aF22100.0
aF19500.0
aF32900.0
aF28100.0
aF17600.0
aF23700.0
aF19400.0
aF26300.0
aF23100.0
aF18800.0
aF28300.0
aF34800.0
aF19500.0
aF16800.0
aF40800.0
aF28700.0
aF20300.0
aF42300.0
aF9300.0
aF18500.0
aF19300.0
aF10800.0
aF16600.0
aF8600.0
aF26100.0
aF27800.0
aF19900.0
aF35900.0
aF22800.0
aF23600.0
aF34300.0
aF8100.0
aF35700.0
aF19700.0
aF19100.0
aF16100.0
aF21500.0
aF34100.0
aF17400.0
aF16600.0
aF33800.0
aF15100.0
aF23800.0
aF26000.0
aF21200.0
aF36800.0
aF35200.0
aF13300.0
aF17900.0
aF19500.0
aF31600.0
aF28200.0
aF10000.0
aF20900.0
aF7500.0
aF16900.0
aF16000.0
aF17700.0
aF22000.0
aF11400.0
aF17700.0
aF15900.0
aF20200.0
aF18900.0
aF10300.0
aF9500.0
aF18400.0
aF16900.0
aF15200.0
aF9900.0
aF17100.0
aF16200.0
aF20000.0
aF10200.0
aF8400.0
aF17800.0
aF24700.0
aF13200.0
aF22800.0
aF18000.0
aF26100.0
aF25300.0
aF19200.0
aF36000.0
aF8800.0
aF20400.0
aF16900.0
aF14900.0
aF15500.0
aF20800.0
aF21700.0
aF25200.0
aF23900.0
aF15200.0
aF19000.0
aF25800.0
aF10200.0
aF15400.0
aF12100.0
aF16600.0
aF20000.0
aF23000.0
aF19500.0
aF24500.0
aF28100.0
aF13800.0
aF42600.0
aF18200.0
aF10900.0
aF20400.0
aF15700.0
aF23500.0
aF18300.0
aF12400.0
aF19800.0
aF29300.0
aF19500.0
aF7200.0
aF15100.0
aF8400.0
aF12100.0
aF8800.0
aF20000.0
aF9900.0
aF25000.0
aF23800.0
aF19900.0
aF37800.0
aF12200.0
aF21600.0
aF26600.0
aF23600.0
aF35200.0
aF20100.0
aF15900.0
aF22100.0
aF9100.0
aF16400.0
aF6300.0
aF22000.0
aF24600.0
aF9400.0
aF21100.0
aF14000.0
aF16600.0
aF14700.0
aF27000.0
aF22600.0
aF29000.0
aF15600.0
aF23000.0
aF28600.0
aF15000.0
aF16000.0
aF17200.0
aF15700.0
aF17500.0
aF28700.0
aF21700.0
aF36900.0
aF15600.0
aF40200.0
aF33400.0
aF16200.0
aF27700.0
aF19400.0
aF14300.0
aF10300.0
aF16700.0
aF16400.0
aF37500.0
aF28200.0
aF51000.0
aF34500.0
aF40300.0
aF22800.0
aF18400.0
aF25100.0
aF19300.0
aF26500.0
aF27100.0
aF18800.0
aF17500.0
aF22800.0
aF6400.0
aF35100.0
aF12300.0
aF18600.0
aF17900.0
aF30400.0
aF15800.0
aF24500.0
aF23800.0
aF14500.0
aF24500.0
aF21400.0
aF10000.0
aF13200.0
aF14900.0
aF12700.0
aF14500.0
aF4400.0
aF15000.0
aF14600.0
aF14100.0
aF14500.0
aF17600.0
aF22300.0
aF17200.0
aF14500.0
aF16700.0
aF27100.0
aF17100.0
aF14900.0
aF25300.0
aF21900.0
aF16500.0
aF12100.0
aF7900.0
aF22600.0
aF15900.0
aF20000.0
aF7700.0
aF25400.0
aF16500.0
aF18500.0
aF13800.0
aF17400.0
aF12300.0
aF17800.0
aF11800.0
aF18400.0
aF15000.0
aF10800.0
aF13100.0
aF24600.0
aF23400.0
aF10100.0
aF16500.0
aF13900.0
aF23600.0
aF16700.0
aF10200.0
aF14400.0
aF15200.0
aF16600.0
aF21900.0
aF18100.0
aF14600.0
aF19900.0
aF14800.0
aF19100.0
aF26000.0
aF16700.0
aF18600.0
aF12900.0
aF29400.0
aF16300.0
aF23800.0
aF15400.0
aF28700.0
aF9900.0
aF32700.0
aF11500.0
aF10700.0
aF25300.0
aF19500.0
aF16700.0
aF17400.0
aF20100.0
aF14600.0
aF16300.0
aF24300.0
aF18900.0
aF7300.0
aF16000.0
aF13200.0
aF16200.0
aF20300.0
aF13200.0
aF14200.0
aF18300.0
aF9800.0
aF24800.0
aF22100.0
aF13800.0
aF7600.0
aF7800.0
aF5600.0
aF13800.0
aF11500.0
aF13700.0
aF12100.0
aF10800.0
aF32700.0
aF8600.0
aF12000.0
aF5900.0
aF30900.0
aF9900.0
aF16000.0
aF22700.0
aF28600.0
aF11400.0
aF19400.0
aF18700.0
aF25900.0
aF24700.0
aF14400.0
aF24600.0
aF37500.0
aF7600.0
aF17700.0
aF23400.0
aF20700.0
aF19100.0
aF18500.0
aF12000.0
aF29600.0
aF13600.0
aF24500.0
aF17000.0
aF14900.0
aF24600.0
aF15000.0
aF14900.0
aF9400.0
aF19500.0
aF10700.0
aF18800.0
aF15200.0
aF23200.0
aF12700.0
aF19900.0
aF13400.0
aF20300.0
aF34300.0
aF40500.0
aF25600.0
aF17200.0
aF21900.0
aF29800.0
aF29800.0
aF17900.0
aF16400.0
aF19400.0
aF28100.0
aF29900.0
aF19500.0
aF16200.0
aF15100.0
aF16700.0
aF27800.0
aF29400.0
aF30000.0
aF31800.0
aF38300.0
aF16500.0
aF12800.0
aF25600.0
aF13500.0
aF18500.0
aF36400.0
aF21600.0
aF12600.0
aF28000.0
aF17300.0
aF25600.0
aF20100.0
aF20900.0
aF20100.0
aF33000.0
aF28300.0
aF27600.0
aF39900.0
aF17500.0
aF23000.0
aF24500.0
aF28500.0
aF29400.0
aF20100.0
aF27800.0
aF18200.0
aF24800.0
aF8500.0
aF20100.0
aF15500.0
aF33900.0
aF19700.0
aF9600.0
aF12600.0
aF12300.0
aF8900.0
aF17200.0
aF14400.0
aF13300.0
aF7200.0
aF13800.0
aF23000.0
aF18800.0
aF6200.0
aF23800.0
aF26800.0
aF15400.0
aF16000.0
aF13700.0
aF22400.0
aF13400.0
aF17200.0
aF33900.0
aF13800.0
aF13000.0
aF11600.0
aF31300.0
aF18300.0
aF26300.0
aF16100.0
aF17400.0
aF21900.0
aF19000.0
aF22500.0
aF16500.0
aF8200.0
aF19200.0
aF13500.0
aF14500.0
aF24100.0
aF19400.0
aF21200.0
aF6800.0
aF23100.0
aF14000.0
aF17500.0
aF19600.0
aF15500.0
aF14500.0
aF15200.0
aF17300.0
aF23900.0
aF24100.0
aF18200.0
aF29500.0
aF17300.0
aF13000.0
aF11800.0
aF19100.0
aF23700.0
aF23700.0
aF14100.0
aF16000.0
aF10800.0
aF22200.0
aF9000.0
aF10200.0
aF37200.0
aF15000.0
aF15200.0
aF15600.0
aF13400.0
aF24900.0
aF49700.0
aF11500.0
aF23000.0
aF19300.0
aF10700.0
aF20100.0
aF16000.0
aF10100.0
aF21200.0
aF12600.0
aF12200.0
aF7400.0
aF19300.0
aF12100.0
aF17600.0
aF18800.0
aF10300.0
aF10000.0
aF10100.0
aF12700.0
aF30800.0
aF14100.0
aF19600.0
aF24900.0
aF13400.0
aF9800.0
aF10300.0
aF15800.0
aF7200.0
aF6200.0
aF16200.0
aF13500.0
aF8800.0
aF12800.0
aF9100.0
aF9900.0
aF24100.0
aF9000.0
aF16100.0
aF31400.0
aF12300.0
aF35400.0
aF6900.0
aF20900.0
aF14300.0
aF16800.0
aF17100.0
aF9900.0
aF6600.0
aF18600.0
aF7700.0
aF7300.0
aF13900.0
aF9200.0
aF7000.0
aF4400.0
aF19500.0
aF14200.0
aF25500.0
aF7100.0
aF10400.0
aF14500.0
aF13900.0
aF26400.0
aF26300.0
aF6400.0
aF27600.0
aF14800.0
aF18600.0
aF16800.0
aF11800.0
aF11100.0
aF28400.0
aF20200.0
aF17100.0
aF9600.0
aF25100.0
aF12900.0
aF21100.0
aF23100.0
aF14900.0
aF13800.0
aF8100.0
aF10700.0
aF16900.0
aF9500.0
aF21600.0
aF16100.0
aF10300.0
aF43000.0
aF14900.0
aF16700.0
aF36200.0
aF26000.0
aF19400.0
aF13900.0
aF23100.0
aF27600.0
aF23800.0
aF22700.0
aF12100.0
aF26800.0
aF19700.0
aF21600.0
aF27400.0
aF21700.0
aF14800.0
aF24800.0
aF11000.0
aF25500.0
aF8100.0
aF19600.0
aF9100.0
aF26600.0
aF29000.0
aF12000.0
aF17200.0
aF9600.0
aF19200.0
aF9200.0
aF10900.0
aF12000.0
aF15500.0
aF13800.0
aF22000.0
aF7600.0
aF10100.0
aF13200.0
aF20100.0
aF17000.0
aF14200.0
aF5400.0
aF7800.0
aF20500.0
aF15500.0
aF16400.0
aF10500.0
aF10400.0
aF16700.0
aF21600.0
aF8600.0
aF18400.0
aF12200.0
aF13700.0
aF13700.0
aF6800.0
aF7000.0
aF16000.0
aF15700.0
aF13200.0
aF9500.0
aF26700.0
aF11400.0
aF19300.0
aF15000.0
aF9000.0
aF13500.0
aF15500.0
aF11200.0
aF14400.0
aF15900.0
aF13500.0
aF20700.0
aF9400.0
aF18800.0
aF20300.0
aF17900.0
aF9900.0
aF31200.0
aF17100.0
aF30600.0
aF16100.0
aF22600.0
aF37500.0
aF10000.0
aF15000.0
aF17900.0
aF21300.0
aF18900.0
aF9700.0
aF13800.0
aF11400.0
aF20400.0
aF17600.0
aF7000.0
aF7200.0
aF19300.0
aF15500.0
aF12700.0
aF7000.0
aF10100.0
aF10000.0
aF9400.0
aF14300.0
aF13100.0
aF17100.0
aF13400.0
aF20100.0
aF10100.0
aF7500.0
aF17000.0
aF22000.0
aF6200.0
aF13400.0
aF8800.0
aF11600.0
aF18500.0
aF29000.0
aF9400.0
aF12500.0
aF22800.0
aF22100.0
aF28100.0
aF32900.0
aF26900.0
aF31700.0
aF22600.0
aF32100.0
aF19200.0
aF19400.0
aF23700.0
aF36500.0
aF29700.0
aF30400.0
aF23100.0
aF25200.0
aF21800.0
aF20200.0
aF25200.0
aF22900.0
aF27900.0
aF18300.0
aF29000.0
aF26000.0
aF28500.0
aF22600.0
aF22600.0
aF28900.0
aF11500.0
aF28100.0
aF13500.0
aF25100.0
aF24900.0
aF36800.0
aF33300.0
aF26000.0
aF15500.0
aF23800.0
aF12500.0
aF19100.0
aF15100.0
aF39800.0
aF24400.0
aF19200.0
aF26300.0
aF17600.0
aF16900.0
aF21700.0
aF30500.0
aF17000.0
aF32500.0
aF7500.0
aF8400.0
aF16000.0
aF21700.0
aF12400.0
aF9100.0
aF12000.0
aF26000.0
aF12300.0
aF8600.0
aF4700.0
aF18000.0
aF14800.0
aF9500.0
aF7900.0
aF6000.0
aF5500.0
aF8400.0
aF3100.0
aF18100.0
aF5800.0
aF13900.0
aF8000.0
aF7000.0
aF6200.0
aF9000.0
aF11400.0
aF15200.0
aF16800.0
aF7700.0
aF10100.0
aF9200.0
aF16600.0
aF13400.0
aF15200.0
aF12200.0
aF11700.0
aF16300.0
aF24200.0
aF13400.0
aF6800.0
aF13800.0
aF14300.0
aF15000.0
aF13000.0
aF7700.0
aF19100.0
aF17400.0
aF15500.0
aF17700.0
aF23700.0
aF18900.0
aF12000.0
aF7000.0
aF24000.0
aF16400.0
aF10400.0
aF19000.0
aF9700.0
aF11700.0
aF9200.0
aF16300.0
aF19500.0
aF16400.0
aF19700.0
aF19100.0
aF14800.0
aF17000.0
aF17300.0
aF17800.0
aF17700.0
aF11900.0
aF10100.0
aF17400.0
aF15500.0
aF27900.0
aF15600.0
aF13800.0
aF20300.0
aF4700.0
aF11100.0
aF5000.0
aF12700.0
aF19600.0
aF10800.0
aF8100.0
aF13500.0
aF9300.0
aF8000.0
aF7600.0
aF13800.0
aF17400.0
aF14500.0
aF9600.0
aF4000.0
aF15400.0
aF12700.0
aF12400.0
aF12500.0
aF17000.0
aF17600.0
aF11300.0
aF16000.0
aF19000.0
aF18900.0
aF15900.0
aF10700.0
aF15900.0
aF8900.0
aF13000.0
aF7800.0
aF9800.0
aF12200.0
aF13200.0
aF4300.0
aF7200.0
aF17400.0
aF6500.0
aF8900.0
aF17500.0
aF8800.0
aF8500.0
aF7400.0
aF41700.0
aF5600.0
aF14900.0
aF17400.0
aF4900.0
aF13800.0
aF14300.0
aF18300.0
aF9200.0
aF16500.0
aF29000.0
aF21300.0
aF27400.0
aF8700.0
aF17400.0
aF15700.0
aF19900.0
aF9000.0
aF16700.0
aF15600.0
aF20600.0
aF20500.0
aF16900.0
aF18500.0
aF39800.0
aF24200.0
aF15500.0
aF22200.0
aF19800.0
aF16100.0
aF32300.0
aF7700.0
aF9000.0
aF25100.0
aF29800.0
aF28200.0
aF12900.0
aF24500.0
aF16700.0
aF27800.0
aF19500.0
aF24900.0
aF24800.0
aF16100.0
aF20400.0
aF15700.0
aF12500.0
aF10200.0
aF14900.0
aF18700.0
aF20100.0
aF40800.0
aF20500.0
aF23400.0
aF28400.0
aF14100.0
aF37800.0
aF22600.0
aF14500.0
aF25000.0
aF12000.0
aF17500.0
aF16700.0
aF16800.0
aF20500.0
aF8500.0
aF15700.0
aF19400.0
aF19400.0
aF20000.0
aF12300.0
aF17800.0
aF12000.0
aF17900.0
aF15800.0
aF11400.0
aF22400.0
aF14000.0
aF18600.0
aF15900.0
aF13300.0
aF15400.0
aF13200.0
aF17200.0
aF14800.0
aF16300.0
aF14600.0
aF12100.0
aF9800.0
aF17400.0
aF13600.0
aF20500.0
aF9700.0
aF11300.0
aF16600.0
aF23800.0
aF17400.0
aF16600.0
aF7700.0
aF16700.0
aF11200.0
aF14400.0
aF21200.0
aF19500.0
aF6700.0
aF17000.0
aF16300.0
aF14900.0
aF22500.0
aF7700.0
aF4000.0
aF21700.0
aF9900.0
aF14600.0
aF9200.0
aF15200.0
aF7800.0
aF6400.0
aF9900.0
aF15200.0
aF7100.0
aF12000.0
aF9800.0
aF8300.0
aF8500.0
aF13400.0
aF3800.0
aF5800.0
aF11100.0
aF14000.0
aF8800.0
aF8500.0
aF7600.0
aF13400.0
aF9400.0
aF12900.0
aF13200.0
aF13400.0
aF8600.0
aF11200.0
aF8900.0
aF12500.0
aF7000.0
aF12600.0
aF14200.0
aF9900.0
aF6000.0
aF9300.0
aF11500.0
aF5100.0
aF3300.0
aF6700.0
aF18600.0
aF9800.0
aF9200.0
aF7300.0
aF5900.0
aF13000.0
aF6300.0
aF14400.0
aF19700.0
aF10700.0
aF13700.0
aF9700.0
aF7900.0
aF9100.0
aF10000.0
aF13900.0
aF6000.0
aF14100.0
aF5400.0
aF16000.0
aF13100.0
aF8500.0
aF13900.0
aF5800.0
aF16300.0
aF10800.0
aF7200.0
aF18500.0
aF9200.0
aF16700.0
aF19100.0
aF13200.0
aF10300.0
aF24600.0
aF18200.0
aF19100.0
aF24800.0
aF24200.0
aF30500.0
aF12800.0
aF16600.0
aF32900.0
aF19400.0
aF13700.0
aF32800.0
aF9400.0
aF20800.0
aF23000.0
aF12700.0
aF11900.0
aF21700.0
aF20100.0
aF28200.0
aF16500.0
aF14700.0
aF14700.0
aF43200.0
aF19400.0
aF26600.0
aF23200.0
aF24100.0
aF21700.0
aF26900.0
aF17400.0
aF14600.0
aF13300.0
aF15800.0
aF8100.0
aF10000.0
aF15100.0
aF7900.0
aF7900.0
aF11700.0
aF9500.0
aF3500.0
aF18000.0
aF12700.0
aF14700.0
aF19800.0
aF41700.0
aF15400.0
aF16200.0
aF30200.0
aF21600.0
aF16300.0
aF18100.0
aF10400.0
aF31800.0
aF13400.0
aF24600.0
aF22200.0
aF13600.0
aF12500.0
aF21100.0
aF40400.0
aF27500.0
aF21100.0
aF17900.0
aF15000.0
aF28000.0
aF20000.0
aF15700.0
aF11000.0
aF15800.0
aF8100.0
aF18600.0
aF17000.0
aF32800.0
aF11000.0
aF27500.0
aF13700.0
aF19400.0
aF8000.0
aF8700.0
aF11700.0
aF17900.0
aF5600.0
aF17100.0
aF11600.0
aF17400.0
aF14900.0
aF24300.0
aF17800.0
aF23500.0
aF25300.0
aF14700.0
aF11400.0
aF19900.0
aF28000.0
aF16700.0
aF16600.0
aF19100.0
aF9900.0
aF8200.0
aF7100.0
aF7600.0
aF16000.0
aF12200.0
aF8800.0
aF4400.0
aF5000.0
aF14900.0
aF14000.0
aF23300.0
aF13400.0
aF10300.0
aF27000.0
aF7100.0
aF17000.0
aF7900.0
aF5600.0
aF4800.0
aF13400.0
aF9500.0
aF11600.0
aF6500.0
aF9200.0
aF12100.0
aF17200.0
aF13300.0
aF10100.0
aF9200.0
aF10000.0
aF12600.0
aF9900.0
aF6200.0
aF4900.0
aF5200.0
aF11100.0
aF9000.0
aF9400.0
aF8400.0
aF16500.0
aF5100.0
aF17100.0
aF10700.0
aF13900.0
aF5500.0
aF9500.0
aF6500.0
aF6500.0
aF7500.0
aF16300.0
aF16400.0
aF17200.0
aF10500.0
aF17000.0
aF10400.0
aF11000.0
aF6900.0
aF7200.0
aF14100.0
aF5800.0
aF9400.0
aF15000.0
aF5800.0
aF6200.0
aF13300.0
aF4800.0
aF6600.0
aF7600.0
aF7300.0
aF11900.0
aF10100.0
aF15300.0
aF9900.0
aF12300.0
aF9800.0
aF10000.0
aF11900.0
aF9200.0
aF15500.0
aF9100.0
aF12300.0
aF20200.0
aF6400.0
aF20600.0
aF5500.0
aF9800.0
aF12600.0
aF5600.0
aF18800.0
aF16500.0
aF8900.0
aF14800.0
aF8800.0
aF10100.0
aF9200.0
aF11800.0
aF9200.0
aF15400.0
aF24300.0
aF8100.0
aF11700.0
aF11300.0
aF8300.0
aF7300.0
aF9200.0
aF6500.0
aF12300.0
aF13900.0
aF18100.0
aF15000.0
aF6100.0
aF9200.0
aF8200.0
aF4900.0
aF12300.0
aF20500.0
aF7900.0
aF11200.0
aF11900.0
aF16600.0
aF20000.0
aF12200.0
aF13000.0
aF14200.0
aF16800.0
aF19000.0
aF21800.0
aF11400.0
aF9100.0
aF16700.0
aF20100.0
aF11700.0
aF13400.0
aF18400.0
aF16100.0
aF17700.0
aF17800.0
aF22500.0
aF10600.0
aF23200.0
aF9100.0
aF11400.0
aF25900.0
aF21700.0
aF16100.0
aF16600.0
aF21200.0
aF13000.0
aF27900.0
aF16600.0
aF23100.0
aF10700.0
aF14000.0
aF23800.0
aF19100.0
aF11000.0
aF18700.0
aF21800.0
aF17500.0
aF7400.0
aF17000.0
aF13500.0
aF34800.0
aF17300.0
aF7600.0
aF12100.0
aF8500.0
aF16600.0
aF11000.0
aF11600.0
aF18100.0
aF7400.0
aF19400.0
aF7500.0
aF22400.0
aF13400.0
aF38300.0
aF20400.0
aF16600.0
aF14600.0
aF20900.0
aF13100.0
aF18300.0
aF27700.0
aF18100.0
aF12200.0
aF23400.0
aF12700.0
aF18800.0
aF21100.0
aF11600.0
aF14100.0
aF14600.0
aF18700.0
aF22600.0
aF12500.0
aF24700.0
aF18900.0
aF19400.0
aF5900.0
aF19800.0
aF11800.0
aF23600.0
aF15000.0
aF12700.0
aF12700.0
aF19600.0
aF18300.0
aF15500.0
aF17900.0
aF15700.0
aF9000.0
aF27000.0
aF15600.0
aF16500.0
aF14000.0
aF17900.0
aF10400.0
aF20500.0
aF16400.0
aF7400.0
aF16900.0
aF6200.0
aF8900.0
aF12800.0
aF12300.0
aF7900.0
aF11300.0
aF9900.0
aF14400.0
aF10700.0
aF9600.0
aF14900.0
aF8800.0
aF11800.0
aF8800.0
aF9100.0
aF13200.0
aF8500.0
aF9000.0
aF5400.0
aF6600.0
aF22400.0
aF5500.0
aF9700.0
aF10900.0
aF12500.0
aF14400.0
aF12600.0
aF17600.0
aF11800.0
aF12400.0
aF13400.0
aF14700.0
aF5200.0
aF7900.0
aF14900.0
aF7300.0
aF12000.0
aF15300.0
aF9200.0
aF6600.0
aF15800.0
aF15700.0
aF13100.0
aF13300.0
aF24600.0
aF7000.0
aF5200.0
aF16100.0
aF12000.0
aF7600.0
aF6000.0
aF6900.0
aF4000.0
aF11300.0
aF11400.0
aF16600.0
aF7400.0
aF6300.0
aF9500.0
aF3500.0
aF10100.0
aF7800.0
aF3300.0
aF7300.0
aF8400.0
aF7500.0
aF15600.0
aF7900.0
aF12900.0
aF10900.0
aF14600.0
aF12300.0
aF6100.0
aF9100.0
aF12400.0
aF10700.0
aF14200.0
aF14400.0
aF3600.0
aF18600.0
aF14400.0
aF5600.0
aF12800.0
aF16300.0
aF13200.0
aF22200.0
aF14000.0
aF18300.0
aF12100.0
aF9800.0
aF15800.0
aF16400.0
aF20100.0
aF15500.0
aF17800.0
aF12900.0
aF6100.0
aF8900.0
aF8400.0
aF8300.0
aF15300.0
aF19400.0
aF12000.0
aF11700.0
aF4500.0
aF7200.0
aF12400.0
aF9700.0
aF9500.0
aF11600.0
aF14600.0
aF21300.0
aF15400.0
aF9500.0
aF10200.0
aF8200.0
aF15100.0
aF22800.0
aF12500.0
aF17000.0
aF6800.0
aF20000.0
aF8100.0
aF12200.0
aF11800.0
aF14800.0
aF15100.0
aF26500.0
aF25400.0
aF15600.0
aF9200.0
aF14300.0
aF24500.0
aF16600.0
aF14900.0
aF12300.0
aF17200.0
aF18500.0
aF13400.0
aF18400.0
aF17600.0
aF21800.0
aF10400.0
aF15000.0
aF12600.0
aF17500.0
aF18100.0
aF21400.0
aF21600.0
aF19400.0
aF28100.0
aF19900.0
aF30500.0
aF18100.0
aF25500.0
aF10400.0
aF9500.0
aF13800.0
aF18100.0
aF21600.0
aF14400.0
aF12800.0
aF18500.0
aF21400.0
aF11800.0
aF15300.0
aF13900.0
aF13700.0
aF16700.0
aF17900.0
aF15800.0
aF17700.0
aF18700.0
aF14500.0
aF15300.0
aF8700.0
aF8000.0
aF13100.0
aF11900.0
aF24100.0
aF5400.0
aF8000.0
aF7300.0
aF11200.0
aF10500.0
aF5500.0
aF4700.0
aF5100.0
aF9000.0
aF11800.0
aF10600.0
aF8500.0
aF9600.0
aF9500.0
aF6500.0
aF10700.0
aF9900.0
aF1700.0
aF10000.0
aF9900.0
aF4700.0
aF7600.0
aF3100.0
aF6100.0
aF12100.0
aF13500.0
aF8500.0
aF10400.0
aF5700.0
aF5400.0
aF14200.0
aF12100.0
aF2800.0
aF6100.0
aF9200.0
aF10600.0
aF7600.0
aF12300.0
aF3100.0
aF6800.0
aF10500.0
aF3300.0
aF6900.0
aF3800.0
aF14200.0
aF5900.0
aF3300.0
aF4000.0
aF9500.0
aF15700.0
aF10600.0
aF13900.0
aF5300.0
aF10800.0
aF12000.0
aF10100.0
aF13600.0
aF18200.0
aF14400.0
aF15700.0
aF26700.0
aF12000.0
aF11100.0
aF11700.0
aF10400.0
aF20200.0
aF21100.0
aF15300.0
aF12700.0
aF16000.0
aF21200.0
aF14100.0
aF9600.0
aF14900.0
aF10300.0
aF26400.0
aF13200.0
aF15200.0
aF15400.0
aF26500.0
aF7900.0
aF19900.0
aF25500.0
aF21100.0
aF13800.0
aF15300.0
aF15300.0
aF29800.0
aF9100.0
aF13800.0
aF11300.0
aF26600.0
aF7000.0
aF9200.0
aF11200.0
aF18100.0
aF15400.0
aF10100.0
aF25600.0
aF8700.0
aF26900.0
aF9500.0
aF16200.0
aF14100.0
aF8800.0
aF8000.0
aF10900.0
aF9700.0
aF5100.0
aF6600.0
aF8500.0
aF10600.0
aF3300.0
aF5900.0
aF7900.0
aF3700.0
aF6000.0
aF3000.0
aF5200.0
aF8400.0
aF9600.0
aF5300.0
aF5600.0
aF10200.0
aF4400.0
aF2600.0
aF7800.0
aF5900.0
aF3200.0
aF7700.0
aF7400.0
aF5200.0
aF7400.0
aF3800.0
aF4000.0
aF3600.0
aF3300.0
aF9500.0
aF2400.0
aF4900.0
aF7400.0
aF8000.0
aF8000.0
aF6300.0
aF6900.0
aF7500.0
aF3900.0
aF8000.0
aF8700.0
aF3600.0
aF8300.0
aF2300.0
aF5300.0
aF8400.0
aF5000.0
aF4500.0
aF3500.0
aF2400.0
aF3500.0
aF2900.0
aF9500.0
aF3400.0
aF3300.0
aF6000.0
aF3800.0
aF6900.0
aF10100.0
aF8900.0
aF4100.0
aF7500.0
aF3800.0
aF8500.0
aF8200.0
aF7700.0
aF12700.0
aF4500.0
aF9800.0
aF9700.0
aF4000.0
aF4300.0
aF3100.0
aF7100.0
aF9600.0
aF4000.0
aF6500.0
aF1900.0
aF3300.0
aF7500.0
aF7000.0
aF4000.0
aF4800.0
aF2300.0
aF1700.0
aF7100.0
aF3800.0
aF3800.0
aF4300.0
aF3500.0
aF7000.0
aF4900.0
aF5900.0
aF7900.0
aF4000.0
aF7900.0
aF4400.0
aF6500.0
aF8700.0
aF4700.0
aF1500.0
aF4700.0
aF6900.0
aF2500.0
aF4800.0
aF3700.0
aF5400.0
aF7300.0
aF5700.0
aF4300.0
aF6900.0
aF4800.0
aF3400.0
aF7000.0
aF11000.0
aF11000.0
aF3100.0
aF6500.0
aF6000.0
aF7200.0
aF4100.0
aF8300.0
aF5100.0
aF6000.0
aF6100.0
aF3300.0
aF6600.0
aF8600.0
aF4700.0
aF4700.0
aF6000.0
aF3300.0
aF3100.0
aF4900.0
aF4600.0
aF7800.0
aF2400.0
aF5300.0
aF3600.0
aF4400.0
aF3500.0
aF7000.0
aF3800.0
aF3300.0
aF4900.0
aF13600.0
aF5400.0
aF7000.0
aF5400.0
aF5000.0
aF7900.0
aF5500.0
aF4300.0
aF2900.0
aF3600.0
aF4800.0
aF5000.0
aF5600.0
aF5200.0
aF9700.0
aF4500.0
aF3200.0
aF2700.0
aF5500.0
aF5300.0
aF9200.0
aF8800.0
aF7800.0
aF7000.0
aF6000.0
aF3100.0
aF3500.0
aF4000.0
aF2600.0
aF9700.0
aF3000.0
aF4500.0
aF1500.0
aF2100.0
aF4900.0
aF5800.0
aF2900.0
aF5000.0
aF5100.0
aF8400.0
aF4700.0
aF4300.0
aF6300.0
aF8100.0
aF4100.0
aF4300.0
aF8400.0
aF7500.0
aF3200.0
aF6800.0
aF5000.0
aF6400.0
aF2800.0
aF3900.0
aF6600.0
aF11500.0
aF9100.0
aF8000.0
aF4300.0
aF5100.0
aF5100.0
aF4400.0
aF3800.0
aF6200.0
aF7100.0
aF4500.0
aF9400.0
aF7000.0
aF8700.0
aF3800.0
aF6800.0
aF14100.0
aF10000.0
aF8700.0
aF6400.0
aF4800.0
aF9300.0
aF5300.0
aF7900.0
aF6900.0
aF5900.0
aF8200.0
aF4800.0
aF5600.0
aF10100.0
aF13400.0
aF4600.0
aF5000.0
aF9500.0
aF6900.0
aF3400.0
aF4600.0
aF5600.0
aF3100.0
aF6900.0
aF8000.0
aF6000.0
aF4500.0
aF7300.0
aF12400.0
aF8800.0
aF5100.0
aF6400.0
aF4500.0
aF4100.0
aF8500.0
aF11200.0
aF3500.0
aF8200.0
aF5700.0
aF10300.0
aF3400.0
aF8800.0
aF4000.0
aF12700.0
aF3100.0
aF9900.0
aF5900.0
aF4300.0
aF4200.0
aF7000.0
aF8300.0
aF4300.0
aF4900.0
aF9100.0
aF7200.0
aF8700.0
aF9600.0
aF5400.0
aF6700.0
aF6700.0
aF5300.0
aF4900.0
aF5000.0
aF5600.0
aF4600.0
aF5500.0
aF8200.0
aF9400.0
aF5500.0
aF3700.0
aF4400.0
aF10700.0
aF2400.0
aF3800.0
aF4700.0
aF5700.0
aF6300.0
aF7900.0
aF8200.0
aF3300.0
aF3800.0
aF6100.0
aF8500.0
aF4500.0
aF6100.0
aF6900.0
aF8800.0
aF6800.0
aF3200.0
aF4600.0
aF3100.0
aF8300.0
aF5200.0
aF6000.0
aF2600.0
aF6300.0
aF13600.0
aF2400.0
aF2700.0
aF8500.0
aF6000.0
aF5900.0
aF4100.0
aF6800.0
aF5900.0
aF2800.0
aF8200.0
aF5800.0
aF3400.0
aF5800.0
aF5100.0
aF5600.0
aF5000.0
aF8700.0
aF4000.0
aF7200.0
aF3900.0
aF2200.0
aF4800.0
aF5800.0
aF7000.0
aF2400.0
aF3600.0
aF3300.0
aF2400.0
aF5900.0
aF8100.0
aF2800.0
aF2600.0
aF1700.0
aF4400.0
aF5700.0
aF4400.0
aF6300.0
aF1900.0
aF4400.0
aF4800.0
aF6100.0
aF3600.0
aF4300.0
aF3800.0
aF4400.0
aF2200.0
aF5600.0
aF3800.0
aF4200.0
aF2600.0
aF5400.0
aF11000.0
aF5800.0
aF6900.0
aF1500.0
aF2400.0
aF4300.0
aF7800.0
aF9900.0
aF2500.0
aF9000.0
aF8100.0
aF5800.0
aF5100.0
aF4800.0
aF11900.0
aF4400.0
aF1700.0
aF3200.0
aF9000.0
aF5300.0
aF5200.0
aF7200.0
aF2800.0
aF5700.0
aF7900.0
aF3600.0
aF2700.0
aF7400.0
aF7000.0
aF10100.0
aF6900.0
aF3100.0
aF2600.0
aF8600.0
aF4900.0
aF12600.0
aF4400.0
aF7500.0
aF4400.0
aF4600.0
aF6800.0
aF8400.0
aF18800.0
aF3800.0
aF5900.0
aF9100.0
aF10000.0
aF5900.0
aF7900.0
aF7900.0
aF4800.0
aF6500.0
aF4000.0
aF6200.0
aF4300.0
aF6600.0
aF7400.0
aF7300.0
aF7000.0
aF5200.0
aF5900.0
aF4700.0
aF10000.0
aF5900.0
aF3700.0
aF2400.0
aF5300.0
aF7800.0
aF8000.0
aF3300.0
aF7000.0
aF7000.0
aF5300.0
aF5600.0
aF8600.0
aF14500.0
aF8800.0
aF6700.0
aF3800.0
aF5900.0
aF4900.0
aF4500.0
aF5300.0
aF4800.0
aF3800.0
aF4000.0
aF4200.0
aF4500.0
aF6000.0
aF19000.0
aF16500.0
aF12200.0
aF10700.0
aF9300.0
aF9000.0
aF14900.0
aF11700.0
aF9800.0
aF13600.0
aF9100.0
aF13500.0
aF5500.0
aF9100.0
aF11200.0
aF7400.0
aF7000.0
aF6700.0
aF5200.0
aF18500.0
aF14000.0
aF20000.0
aF9900.0
aF1900.0
aF5800.0
aF13400.0
aF11300.0
aF7400.0
aF8900.0
aF6600.0
aF16100.0
aF11300.0
aF23100.0
aF6600.0
aF10900.0
aF7700.0
aF6900.0
aF18200.0
aF6100.0
aF16500.0
aF9800.0
aF7000.0
aF12700.0
aF16000.0
aF12000.0
aF3500.0
aF9500.0
aF21600.0
aF10700.0
aF10200.0
aF15300.0
aF15100.0
aF19900.0
aF8000.0
aF11100.0
aF11000.0
aF10500.0
aF17100.0
aF13900.0
aF9300.0
aF12200.0
aF8800.0
aF12400.0
aF14800.0
aF9300.0
aF11400.0
aF6800.0
aF6200.0
aF8700.0
aF17200.0
aF7300.0
aF4400.0
aF13900.0
aF14000.0
aF7900.0
aF7200.0
aF11400.0
aF10000.0
aF15900.0
aF12000.0
aF10600.0
aF10100.0
aF5000.0
aF9100.0
aF8300.0
aF12200.0
aF8500.0
aF6500.0
aF5000.0
aF14100.0
aF6600.0
aF9200.0
aF7500.0
aF9300.0
aF28100.0
aF4700.0
aF5200.0
aF8000.0
aF7700.0
aF8300.0
aF9400.0
aF8900.0
aF15600.0
aF13400.0
aF6500.0
aF10600.0
aF3700.0
aF2400.0
aF15800.0
aF9100.0
aF5200.0
aF8100.0
aF17300.0
aF10000.0
aF14800.0
aF7500.0
aF8300.0
aF8900.0
aF7900.0
aF12100.0
aF6300.0
aF8300.0
aF7200.0
aF10900.0
aF5700.0
aF7300.0
aF10200.0
aF3900.0
aF8900.0
aF3600.0
aF3300.0
aF7900.0
aF6500.0
aF6000.0
aF7100.0
aF4100.0
aF8300.0
aF5700.0
aF2900.0
aF4700.0
aF8500.0
aF6500.0
aF8000.0
aF8700.0
aF4000.0
aF3600.0
aF7700.0
aF9700.0
aF7700.0
aF12300.0
aF14500.0
aF10000.0
aF11700.0
aF17200.0
aF3600.0
aF10700.0
aF10100.0
aF10500.0
aF6500.0
aF18900.0
aF14700.0
aF18200.0
aF6900.0
aF10300.0
aF28600.0
aF8200.0
aF7200.0
aF12300.0
aF12800.0
aF6600.0
aF11500.0
aF7600.0
aF16200.0
aF8700.0
aF12900.0
aF2600.0
aF9900.0
aF11200.0
aF13200.0
aF20300.0
aF9500.0
aF9100.0
aF6500.0
aF7600.0
aF5300.0
aF3700.0
aF6200.0
aF15100.0
aF4900.0
aF4800.0
aF8200.0
aF9600.0
aF12100.0
aF10700.0
aF18800.0
aF11900.0
aF5900.0
aF15800.0
aF18100.0
aF24800.0
aF10600.0
aF9500.0
aF13700.0
aF19700.0
aF13000.0
aF13900.0
aF8400.0
aF12200.0
aF11800.0
aF11100.0
aF26200.0
aF10700.0
aF10900.0
aF4500.0
aF9700.0
aF15500.0
aF8600.0
aF5900.0
aF3900.0
aF12700.0
aF16600.0
aF11900.0
aF7600.0
aF11300.0
aF6400.0
aF7700.0
aF9800.0
aF9500.0
aF6800.0
aF13800.0
aF5200.0
aF6000.0
aF15900.0
aF21100.0
aF9300.0
aF14700.0
aF15600.0
aF12500.0
aF12700.0
aF9700.0
aF3200.0
aF6800.0
aF2900.0
aF7700.0
aF15300.0
aF6900.0
aF11900.0
aF11600.0
aF12100.0
aF12700.0
aF18300.0
aF22500.0
aF15600.0
aF17300.0
aF18700.0
aF16700.0
aF14300.0
aF7600.0
aF10100.0
aF8700.0
aF7800.0
aF13000.0
aF8000.0
aF14900.0
aF9400.0
aF8300.0
aF13300.0
aF10000.0
aF9200.0
aF13000.0
aF2600.0
aF17200.0
aF6800.0
aF3800.0
aF4700.0
aF3300.0
aF5500.0
aF6500.0
aF3100.0
aF8900.0
aF5900.0
aF6500.0
aF3600.0
aF8600.0
aF5100.0
aF5300.0
aF8200.0
aF8800.0
aF7400.0
aF4900.0
aF6200.0
aF5900.0
aF6800.0
aF7900.0
aF1700.0
aF17300.0
aF10000.0
aF17400.0
aF8100.0
aF11400.0
aF17300.0
aF7000.0
aF10000.0
aF5200.0
aF5200.0
aF3400.0
aF13300.0
aF5800.0
aF11500.0
aF9800.0
aF9900.0
aF12100.0
aF4600.0
aF8900.0
aF13800.0
aF9400.0
aF8400.0
aF8000.0
aF3700.0
aF13900.0
aF4300.0
aF7300.0
aF9900.0
aF5300.0
aF4900.0
aF5200.0
aF5700.0
aF8900.0
aF8100.0
aF8500.0
aF3000.0
aF4900.0
aF5600.0
aF5700.0
aF10300.0
aF9300.0
aF7100.0
aF4500.0
aF6600.0
aF5900.0
aF5700.0
aF3100.0
aF8200.0
aF6600.0
aF15600.0
aF4200.0
aF4700.0
aF5800.0
aF12000.0
aF5100.0
aF7400.0
aF11500.0
aF17600.0
aF8600.0
aF15700.0
aF18000.0
aF6500.0
aF10800.0
aF14500.0
aF13000.0
aF12200.0
aF10700.0
aF7000.0
aF9600.0
aF20700.0
aF8700.0
aF7000.0
aF2400.0
aF6600.0
aF9600.0
aF8900.0
aF9000.0
aF11100.0
aF3300.0
aF3500.0
aF11700.0
aF6400.0
aF9700.0
aF6300.0
aF10500.0
aF4600.0
aF5500.0
aF5100.0
aF4100.0
aF11300.0
aF13500.0
aF6600.0
aF5100.0
aF5400.0
aF9500.0
aF9100.0
aF8500.0
aF7200.0
aF3900.0
aF3300.0
aF5600.0
aF8400.0
aF3100.0
aF4500.0
aF2700.0
aF8000.0
aF4500.0
aF4900.0
aF2600.0
aF2200.0
aF2400.0
aF6200.0
aF2800.0
aF8500.0
aF4300.0
aF3400.0
aF4200.0
aF4600.0
aF3500.0
aF6000.0
aF7100.0
aF5100.0
aF12900.0
aF11000.0
aF5700.0
aF3500.0
aF3300.0
aF10100.0
aF2200.0
aF3100.0
aF2100.0
aF6200.0
aF1500.0
aF6900.0
aF6500.0
aF1700.0
aF4000.0
aF6700.0
aF9800.0
aF2800.0
aF2900.0
aF8300.0
aF5300.0
aF3600.0
aF4500.0
aF4500.0
aF5700.0
aF6400.0
aF6100.0
aF3600.0
aF7100.0
aF10600.0
aF8300.0
aF5600.0
aF5300.0
aF11400.0
aF2200.0
aF3300.0
aF5200.0
aF3600.0
aF3900.0
aF3800.0
aF7000.0
aF9800.0
aF10800.0
aF7100.0
aF6900.0
aF10000.0
aF6000.0
aF5200.0
aF11900.0
aF3800.0
aF6700.0
aF4500.0
aF6800.0
aF1900.0
aF11800.0
aF6500.0
aF8600.0
aF4500.0
aF5900.0
aF6900.0
aF8000.0
aF4000.0
aF6000.0
aF5100.0
aF5000.0
aF5700.0
aF4200.0
aF8200.0
aF5000.0
aF4100.0
aF9800.0
aF4700.0
aF10500.0
aF8100.0
aF3500.0
aF8100.0
aF7900.0
aF13700.0
aF4600.0
aF6800.0
aF9200.0
aF6800.0
aF4700.0
aF9100.0
aF9000.0
aF5300.0
aF7600.0
aF11800.0
aF8500.0
aF10100.0
aF13000.0
aF4200.0
aF10500.0
aF4200.0
aF11000.0
aF8900.0
aF6600.0
aF11700.0
aF4600.0
aF3600.0
aF11100.0
aF9800.0
aF10400.0
aF4900.0
aF4000.0
aF4300.0
aF4500.0
aF7600.0
aF8200.0
aF12400.0
aF12600.0
aF16000.0
aF8800.0
aF4000.0
aF4500.0
aF8400.0
aF7400.0
aF11500.0
aF9500.0
aF14500.0
aF8400.0
aF10300.0
aF4600.0
aF5000.0
aF2400.0
aF10100.0
aF5700.0
aF4300.0
aF5700.0
aF5900.0
aF5300.0
aF12800.0
aF10300.0
aF10100.0
aF12400.0
aF8400.0
aF5100.0
aF6200.0
aF6700.0
aF8600.0
aF5800.0
aF8900.0
aF5700.0
aF4100.0
aF9900.0
aF3100.0
aF8700.0
aF20100.0
aF12900.0
aF10300.0
aF11700.0
aF18600.0
aF21900.0
aF5800.0
aF17100.0
aF7100.0
aF7100.0
aF6300.0
aF13600.0
aF7200.0
aF7500.0
aF9400.0
aF15800.0
aF13600.0
aF8200.0
aF4000.0
aF8700.0
aF8800.0
aF3900.0
aF6100.0
aF9800.0
aF14500.0
aF15500.0
aF10500.0
aF12100.0
aF6500.0
aF11600.0
aF5100.0
aF4200.0
aF7600.0
aF6000.0
aF5600.0
aF8600.0
aF10700.0
aF2200.0
aF14400.0
aF17400.0
aF4800.0
aF6800.0
aF6300.0
aF14300.0
aF10100.0
aF7300.0
aF7900.0
aF6400.0
aF9400.0
aF8500.0
aF14800.0
aF6600.0
aF18900.0
aF7500.0
aF6200.0
aF5500.0
aF5600.0
aF10700.0
aF8100.0
aF19500.0
aF10800.0
aF18800.0
aF11900.0
aF24400.0
aF11600.0
aF8400.0
aF8100.0
aF22500.0
aF16000.0
aF11900.0
aF7800.0
aF17400.0
aF14100.0
aF15900.0
aF11000.0
aF8600.0
aF19900.0
aF13800.0
aF11900.0
aF18400.0
aF8500.0
aF11400.0
aF17300.0
aF20200.0
aF21800.0
aF7800.0
aF7600.0
aF13700.0
aF13000.0
aF14800.0
aF11100.0
aF11400.0
aF6100.0
aF15600.0
aF6600.0
aF10800.0
aF15500.0
aF11400.0
aF8000.0
aF5500.0
aF10400.0
aF11500.0
aF7000.0
aF11500.0
aF11200.0
aF10500.0
aF6100.0
aF4700.0
aF8900.0
aF8700.0
aF17100.0
aF7200.0
aF3300.0
aF10800.0
aF6700.0
aF5700.0
aF5300.0
aF6800.0
aF6800.0
aF6300.0
aF6900.0
aF11400.0
aF11700.0
aF5100.0
aF11000.0
aF5500.0
aF4800.0
aF13000.0
aF13200.0
aF4900.0
aF5400.0
aF11200.0
aF6800.0
aF5600.0
aF10600.0
aF8300.0
aF4700.0
aF9600.0
aF8500.0
aF7000.0
aF7600.0
aF5000.0
aF12300.0
aF7500.0
aF2800.0
aF4800.0
aF3900.0
aF2400.0
aF8500.0
aF11900.0
aF6500.0
aF5200.0
aF6100.0
aF4000.0
aF9500.0
aF8000.0
aF4200.0
aF6800.0
aF8100.0
aF7200.0
aF3600.0
aF7700.0
aF7800.0
aF6700.0
aF10300.0
aF3300.0
aF7500.0
aF7200.0
aF11400.0
aF9200.0
aF4900.0
aF3900.0
aF13000.0
aF3000.0
aF9200.0
aF4700.0
aF4500.0
aF4900.0
aF5300.0
aF17200.0
aF9300.0
aF17600.0
aF4600.0
aF10800.0
aF6000.0
aF2500.0
aF3800.0
aF5800.0
aF4700.0
aF5500.0
aF3800.0
aF8700.0
aF9700.0
aF7300.0
aF7400.0
aF4700.0
aF7300.0
aF3600.0
aF7600.0
aF9500.0
aF10900.0
aF6000.0
aF4000.0
aF5000.0
aF4400.0
aF2600.0
aF6000.0
aF7000.0
aF9000.0
aF7900.0
aF4900.0
aF5600.0
aF12600.0
aF9000.0
aF7700.0
aF6200.0
aF9600.0
aF18400.0
aF15500.0
aF4000.0
aF11700.0
aF9200.0
aF8800.0
aF3500.0
aF7600.0
aF7100.0
aF6900.0
aF10600.0
aF4400.0
aF7300.0
aF3600.0
aF4100.0
aF3900.0
aF4600.0
aF4900.0
aF2400.0
aF7100.0
aF6500.0
aF4000.0
aF9500.0
aF6800.0
aF9000.0
aF3600.0
aF8900.0
aF10200.0
aF6900.0
aF12900.0
aF9900.0
aF1900.0
aF6000.0
aF14500.0
aF10200.0
aF8100.0
aF7700.0
aF6400.0
aF7000.0
aF6700.0
aF12500.0
aF5800.0
aF10200.0
aF7900.0
aF6600.0
aF4300.0
aF4600.0
aF5000.0
aF4000.0
aF5100.0
aF2800.0
aF8800.0
aF8000.0
aF4700.0
aF11200.0
aF15400.0
aF4000.0
aF6500.0
aF6800.0
aF11800.0
aF10200.0
aF10100.0
aF8600.0
aF3700.0
aF3400.0
aF4000.0
aF5300.0
aF5200.0
aF9100.0
aF9800.0
aF3900.0
aF10100.0
aF6700.0
aF15400.0
aF10900.0
aF10100.0
aF10500.0
aF7300.0
aF5800.0
aF9400.0
aF10400.0
aF13400.0
aF8100.0
aF9600.0
aF11900.0
aF7300.0
aF8100.0
aF4000.0
aF6800.0
aF8800.0
aF5700.0
aF9600.0
aF11300.0
aF7600.0
aF5100.0
aF6200.0
aF3600.0
aF4100.0
aF9600.0
aF5700.0
aF3300.0
aF8100.0
aF6700.0
aF11600.0
aF14500.0
aF4000.0
aF2500.0
aF7700.0
aF4400.0
aF15100.0
aF7600.0
aF4700.0
aF4500.0
aF4400.0
aF7700.0
aF14400.0
aF13400.0
aF6200.0
aF8700.0
aF12200.0
aF6300.0
aF15700.0
aF15500.0
aF7900.0
aF7500.0
aF5900.0
aF4000.0
aF6300.0
aF10400.0
aF6600.0
aF5300.0
aF15200.0
aF7800.0
aF12100.0
aF10600.0
aF15000.0
aF10000.0
aF6600.0
aF7900.0
aF13800.0
a.