(lp0
F1.0
aF0.0
aF0.0
aF1.0
aF2.0
aF1.0
aF0.0
aF1.0
aF3.0
aF2.0
aF1.0
aF1.0
aF1.0
aF2.0
aF1.0
aF7.0
aF2.0
aF0.0
aF2.0
aF2.0
aF1.0
aF2.0
aF0.0
aF3.0
aF0.0
aF0.0
aF0.0
aF0.0
aF1.0
aF1.0
aF0.0
aF1.0
aF1.0
aF2.0
aF0.0
aF0.0
aF0.0
aF4.0
aF1.0
aF1.0
aF1.0
aF2.0
aF2.0
aF3.0
aF0.0
aF1.0
aF2.0
aF0.0
aF1.0
aF1.0
aF0.0
aF3.0
aF1.0
aF4.0
aF0.0
aF0.0
aF0.0
aF2.0
aF1.0
aF0.0
aF0.0
aF2.0
aF0.0
aF0.0
aF3.0
aF0.0
aF4.0
aF0.0
aF1.0
aF3.0
aF0.0
aF0.0
aF1.0
aF0.0
aF0.0
aF0.0
aF0.0
aF3.0
aF0.0
aF3.0
aF1.0
aF2.0
aF1.0
aF0.0
aF1.0
aF0.0
aF3.0
aF1.0
aF0.0
aF2.0
aF0.0
aF1.0
aF3.0
aF2.0
aF2.0
aF1.0
aF0.0
aF2.0
aF0.0
aF1.0
aF1.0
aF1.0
aF2.0
aF1.0
aF4.0
aF0.0
aF0.0
aF2.0
aF1.0
aF2.0
aF2.0
aF1.0
aF2.0
aF2.0
aF3.0
aF1.0
aF1.0
aF3.0
aF4.0
aF1.0
aF2.0
aF1.0
aF5.0
aF1.0
aF1.0
aF1.0
aF1.0
aF1.0
aF2.0
aF0.0
aF1.0
aF1.0
aF2.0
aF0.0
aF1.0
aF0.0
aF0.0
aF2.0
aF2.0
aF0.0
aF2.0
aF3.0
aF0.0
aF3.0
aF0.0
aF0.0
aF0.0
aF2.0
aF0.0
aF2.0
aF1.0
aF0.0
aF1.0
aF0.0
aF0.0
aF1.0
aF2.0
aF0.0
aF2.0
aF0.0
aF2.0
aF0.0
aF0.0
aF2.0
aF0.0
aF3.0
aF0.0
aF1.0
aF1.0
aF0.0
aF0.0
aF1.0
aF0.0
aF0.0
aF3.0
aF2.0
aF3.0
aF0.0
aF2.0
aF2.0
aF2.0
aF1.0
aF2.0
aF1.0
aF3.0
aF2.0
aF1.0
aF0.0
aF1.0
aF1.0
aF2.0
aF0.0
aF0.0
aF0.0
aF0.0
aF4.0
aF3.0
aF0.0
aF0.0
aF3.0
aF0.0
aF2.0
aF2.0
aF0.0
aF2.0
aF2.0
aF0.0
aF2.0
aF5.0
aF1.0
aF0.0
aF3.0
aF2.0
aF0.0
aF1.0
aF1.0
aF2.0
aF2.0
aF1.0
aF0.0
aF2.0
aF3.0
aF0.0
aF0.0
aF1.0
aF1.0
aF2.0
aF2.0
aF2.0
aF2.0
aF0.0
aF1.0
aF1.0
aF0.0
aF2.0
aF0.0
aF1.0
aF1.0
aF0.0
aF0.0
aF1.0
aF2.0
aF0.0
aF5.0
aF6.0
aF1.0
aF2.0
aF0.0
aF0.0
aF2.0
aF0.0
aF2.0
aF2.0
aF2.0
aF0.0
aF2.0
aF3.0
aF4.0
aF2.0
aF0.0
aF0.0
aF1.0
aF3.0
aF2.0
aF2.0
aF0.0
aF0.0
aF0.0
aF5.0
aF0.0
aF2.0
aF2.0
aF1.0
aF2.0
aF1.0
aF3.0
aF3.0
aF2.0
aF4.0
aF5.0
aF0.0
aF2.0
aF0.0
aF4.0
aF0.0
aF0.0
aF1.0
aF2.0
aF1.0
aF2.0
aF0.0
aF0.0
aF3.0
aF1.0
aF0.0
aF3.0
aF3.0
aF2.0
aF0.0
aF1.0
aF1.0
aF3.0
aF1.0
aF4.0
aF0.0
aF2.0
aF1.0
aF0.0
aF1.0
aF0.0
aF2.0
aF1.0
aF2.0
aF1.0
aF3.0
aF1.0
aF2.0
aF1.0
aF3.0
aF2.0
aF1.0
aF3.0
aF0.0
aF1.0
aF1.0
aF0.0
aF0.0
aF2.0
aF0.0
aF1.0
aF0.0
aF0.0
aF0.0
aF3.0
aF3.0
aF0.0
aF3.0
aF1.0
aF2.0
aF1.0
aF0.0
aF1.0
aF1.0
aF2.0
aF0.0
aF0.0
aF1.0
aF1.0
aF2.0
aF0.0
aF1.0
aF2.0
aF2.0
aF1.0
aF0.0
aF0.0
aF0.0
aF2.0
aF1.0
aF2.0
aF3.0
aF7.0
aF6.0
aF1.0
aF4.0
aF0.0
aF3.0
aF0.0
aF1.0
aF3.0
aF1.0
aF4.0
aF3.0
aF0.0
aF2.0
aF1.0
aF0.0
aF1.0
aF0.0
aF2.0
aF0.0
aF1.0
aF2.0
aF4.0
aF2.0
aF0.0
aF0.0
aF1.0
aF2.0
aF0.0
aF2.0
aF0.0
aF1.0
aF0.0
aF1.0
aF1.0
aF0.0
aF2.0
aF1.0
aF2.0
aF3.0
aF0.0
aF1.0
aF2.0
aF4.0
aF3.0
aF0.0
aF6.0
aF2.0
aF0.0
aF1.0
aF0.0
aF0.0
aF3.0
aF1.0
aF0.0
aF0.0
aF2.0
aF1.0
aF1.0
aF1.0
aF1.0
aF2.0
aF2.0
aF2.0
aF2.0
aF4.0
aF1.0
aF1.0
aF4.0
aF1.0
aF2.0
aF4.0
aF1.0
aF2.0
aF1.0
aF0.0
aF1.0
aF1.0
aF1.0
aF0.0
aF3.0
aF0.0
aF1.0
aF1.0
aF3.0
aF3.0
aF2.0
aF1.0
aF2.0
aF2.0
aF7.0
aF0.0
aF1.0
aF2.0
aF0.0
aF2.0
aF2.0
aF0.0
aF3.0
aF2.0
aF1.0
aF2.0
aF0.0
aF3.0
aF1.0
aF0.0
aF1.0
aF0.0
aF3.0
aF0.0
aF1.0
aF3.0
aF3.0
aF1.0
aF2.0
aF4.0
aF1.0
aF5.0
aF2.0
aF0.0
aF2.0
aF0.0
aF1.0
aF1.0
aF3.0
aF7.0
aF2.0
aF1.0
aF3.0
aF0.0
aF3.0
aF0.0
aF3.0
aF4.0
aF3.0
aF1.0
aF2.0
aF1.0
aF2.0
aF3.0
aF2.0
aF2.0
aF2.0
aF4.0
aF2.0
aF1.0
aF4.0
aF3.0
aF2.0
aF0.0
aF2.0
aF2.0
aF3.0
aF1.0
aF0.0
aF0.0
aF4.0
aF0.0
aF1.0
aF2.0
aF0.0
aF1.0
aF0.0
aF2.0
aF2.0
aF0.0
aF0.0
aF2.0
aF3.0
aF1.0
aF2.0
aF1.0
aF0.0
aF0.0
aF3.0
aF6.0
aF2.0
aF1.0
aF3.0
aF2.0
aF1.0
aF2.0
aF1.0
aF2.0
aF1.0
aF2.0
aF1.0
aF0.0
aF0.0
aF1.0
aF1.0
aF2.0
aF1.0
aF5.0
aF1.0
aF0.0
aF2.0
aF1.0
aF3.0
aF1.0
aF0.0
aF0.0
aF3.0
aF1.0
aF0.0
aF3.0
aF0.0
aF3.0
aF1.0
aF2.0
aF0.0
aF3.0
aF2.0
aF2.0
aF0.0
aF1.0
aF1.0
aF0.0
aF2.0
aF0.0
aF2.0
aF1.0
aF0.0
aF1.0
aF0.0
aF0.0
aF0.0
aF0.0
aF1.0
aF2.0
aF0.0
aF1.0
aF0.0
aF0.0
aF2.0
aF3.0
aF1.0
aF2.0
aF1.0
aF1.0
aF2.0
aF0.0
aF0.0
aF0.0
aF1.0
aF0.0
aF3.0
aF0.0
aF1.0
aF0.0
aF0.0
aF1.0
aF2.0
aF1.0
aF0.0
aF1.0
aF1.0
aF0.0
aF2.0
aF2.0
aF2.0
aF2.0
aF6.0
aF3.0
aF4.0
aF0.0
aF0.0
aF2.0
aF1.0
aF2.0
aF2.0
aF1.0
aF1.0
aF0.0
aF0.0
aF1.0
aF1.0
aF2.0
aF1.0
aF0.0
aF1.0
aF0.0
aF0.0
aF1.0
aF6.0
aF0.0
aF0.0
aF1.0
aF3.0
aF1.0
aF0.0
aF0.0
aF0.0
aF0.0
aF1.0
aF3.0
aF0.0
aF3.0
aF2.0
aF3.0
aF0.0
aF2.0
aF1.0
aF1.0
aF1.0
aF2.0
aF1.0
aF4.0
aF1.0
aF4.0
aF3.0
aF0.0
aF0.0
aF2.0
aF3.0
aF1.0
aF2.0
aF3.0
aF2.0
aF2.0
aF2.0
aF2.0
aF4.0
aF6.0
aF3.0
aF0.0
aF2.0
aF2.0
aF1.0
aF2.0
aF2.0
aF2.0
aF2.0
aF2.0
aF1.0
aF3.0
aF3.0
aF2.0
aF0.0
aF2.0
aF0.0
aF2.0
aF2.0
aF0.0
aF1.0
aF5.0
aF1.0
aF3.0
aF2.0
aF0.0
aF2.0
aF2.0
aF3.0
aF0.0
aF2.0
aF2.0
aF0.0
aF1.0
aF0.0
aF1.0
aF2.0
aF0.0
aF2.0
aF3.0
aF0.0
aF3.0
aF2.0
aF0.0
aF5.0
aF0.0
aF3.0
aF2.0
aF2.0
aF0.0
aF2.0
aF2.0
aF2.0
aF3.0
aF0.0
aF0.0
aF3.0
aF2.0
aF0.0
aF4.0
aF2.0
aF0.0
aF1.0
aF3.0
aF3.0
aF3.0
aF0.0
aF3.0
aF1.0
aF1.0
aF2.0
aF2.0
aF3.0
aF4.0
aF1.0
aF1.0
aF3.0
aF0.0
aF2.0
aF2.0
aF1.0
aF2.0
aF2.0
aF0.0
aF0.0
aF3.0
aF1.0
aF2.0
aF0.0
aF0.0
aF1.0
aF1.0
aF2.0
aF2.0
aF4.0
aF2.0
aF0.0
aF2.0
aF1.0
aF0.0
aF4.0
aF3.0
aF2.0
aF2.0
aF1.0
aF0.0
aF1.0
aF2.0
aF1.0
aF1.0
aF2.0
aF4.0
aF0.0
aF0.0
aF2.0
aF2.0
aF0.0
aF2.0
aF0.0
aF1.0
aF0.0
aF0.0
aF4.0
aF2.0
aF4.0
aF0.0
aF1.0
aF2.0
aF3.0
aF2.0
aF2.0
aF2.0
aF0.0
aF2.0
aF3.0
aF0.0
aF0.0
aF8.0
aF3.0
aF2.0
aF0.0
aF0.0
aF2.0
aF2.0
aF0.0
aF1.0
aF1.0
aF4.0
aF1.0
aF2.0
aF3.0
aF0.0
aF1.0
aF3.0
aF0.0
aF2.0
aF3.0
aF0.0
aF0.0
aF0.0
aF1.0
aF2.0
aF2.0
aF2.0
aF2.0
aF0.0
aF2.0
aF3.0
aF1.0
aF0.0
aF2.0
aF4.0
aF2.0
aF0.0
aF1.0
aF0.0
aF0.0
aF3.0
aF2.0
aF1.0
aF1.0
aF3.0
aF2.0
aF2.0
aF2.0
aF1.0
aF2.0
aF4.0
aF2.0
aF3.0
aF1.0
aF0.0
aF1.0
aF0.0
aF1.0
aF0.0
aF0.0
aF1.0
aF0.0
aF0.0
aF3.0
aF5.0
aF2.0
aF0.0
aF3.0
aF0.0
aF2.0
aF0.0
aF0.0
aF2.0
aF2.0
aF2.0
aF1.0
aF2.0
aF3.0
aF1.0
aF1.0
aF2.0
aF0.0
aF5.0
aF1.0
aF0.0
aF1.0
aF2.0
aF0.0
aF0.0
aF2.0
aF0.0
aF0.0
aF4.0
aF3.0
aF2.0
aF3.0
aF0.0
aF0.0
aF9.0
aF2.0
aF1.0
aF0.0
aF3.0
aF2.0
aF2.0
aF2.0
aF1.0
aF4.0
aF1.0
aF2.0
aF4.0
aF1.0
aF3.0
aF3.0
aF2.0
aF0.0
aF0.0
aF1.0
aF1.0
aF3.0
aF3.0
aF2.0
aF2.0
aF0.0
aF3.0
aF1.0
aF1.0
aF1.0
aF2.0
aF4.0
aF1.0
aF3.0
aF2.0
aF0.0
aF1.0
aF3.0
aF0.0
aF5.0
aF3.0
aF0.0
aF0.0
aF1.0
aF4.0
aF3.0
aF2.0
aF2.0
aF2.0
aF0.0
aF1.0
aF1.0
aF2.0
aF2.0
aF3.0
aF1.0
aF1.0
aF0.0
aF2.0
aF0.0
aF3.0
aF2.0
aF4.0
aF3.0
aF2.0
aF0.0
aF1.0
aF0.0
aF2.0
aF2.0
aF4.0
aF4.0
aF4.0
aF2.0
aF0.0
aF0.0
aF0.0
aF1.0
aF3.0
aF5.0
aF2.0
aF2.0
aF0.0
aF2.0
aF2.0
aF2.0
aF2.0
aF1.0
aF3.0
aF1.0
aF0.0
aF1.0
aF1.0
aF3.0
aF1.0
aF2.0
aF0.0
aF2.0
aF1.0
aF4.0
aF1.0
aF3.0
aF0.0
aF1.0
aF2.0
aF1.0
aF2.0
aF0.0
aF0.0
aF2.0
aF0.0
aF0.0
aF0.0
aF0.0
aF2.0
aF0.0
aF4.0
aF3.0
aF0.0
aF0.0
aF2.0
aF1.0
aF1.0
aF1.0
aF0.0
aF2.0
aF4.0
aF0.0
aF1.0
aF0.0
aF0.0
aF2.0
aF0.0
aF1.0
aF2.0
aF1.0
aF2.0
aF0.0
aF1.0
aF0.0
aF2.0
aF1.0
aF1.0
aF3.0
aF0.0
aF3.0
aF3.0
aF1.0
aF0.0
aF2.0
aF1.0
aF1.0
aF1.0
aF1.0
aF0.0
aF0.0
aF3.0
aF4.0
aF1.0
aF1.0
aF2.0
aF1.0
aF1.0
aF2.0
aF3.0
aF0.0
aF5.0
aF2.0
aF1.0
aF0.0
aF2.0
aF2.0
aF1.0
aF1.0
aF2.0
aF3.0
aF3.0
aF0.0
aF0.0
aF3.0
aF2.0
aF1.0
aF0.0
aF2.0
aF1.0
aF0.0
aF0.0
aF3.0
aF0.0
aF0.0
aF2.0
aF2.0
aF3.0
aF1.0
aF1.0
aF0.0
aF0.0
aF2.0
aF1.0
aF1.0
aF4.0
aF4.0
aF1.0
aF1.0
aF1.0
aF1.0
aF3.0
aF4.0
aF1.0
aF0.0
aF1.0
aF0.0
aF4.0
aF2.0
aF0.0
aF3.0
aF1.0
aF0.0
aF1.0
aF1.0
aF1.0
aF2.0
aF2.0
aF1.0
aF1.0
aF1.0
aF1.0
aF3.0
aF2.0
aF4.0
aF0.0
aF1.0
aF1.0
aF2.0
aF2.0
aF2.0
aF0.0
aF0.0
aF1.0
aF0.0
aF2.0
aF2.0
aF0.0
aF0.0
aF0.0
aF0.0
aF0.0
aF1.0
aF3.0
aF3.0
aF1.0
aF2.0
aF1.0
aF1.0
aF2.0
aF1.0
aF0.0
aF4.0
aF3.0
aF2.0
aF3.0
aF0.0
aF2.0
aF1.0
aF0.0
aF1.0
aF4.0
aF3.0
aF1.0
aF2.0
aF3.0
aF0.0
aF4.0
aF4.0
aF0.0
aF2.0
aF2.0
aF0.0
aF1.0
aF1.0
aF2.0
aF3.0
aF1.0
aF2.0
aF2.0
aF0.0
aF1.0
aF2.0
aF1.0
aF0.0
aF1.0
aF3.0
aF0.0
aF1.0
aF2.0
aF2.0
aF2.0
aF5.0
aF4.0
aF5.0
aF1.0
aF2.0
aF2.0
aF0.0
aF0.0
aF0.0
aF1.0
aF1.0
aF1.0
aF2.0
aF1.0
aF1.0
aF0.0
aF4.0
aF4.0
aF2.0
aF1.0
aF3.0
aF0.0
aF3.0
aF2.0
aF1.0
aF0.0
aF6.0
aF0.0
aF4.0
aF2.0
aF0.0
aF2.0
aF2.0
aF2.0
aF0.0
aF2.0
aF2.0
aF2.0
aF1.0
aF1.0
aF1.0
aF1.0
aF3.0
aF0.0
aF0.0
aF1.0
aF0.0
aF0.0
aF2.0
aF0.0
aF2.0
aF2.0
aF2.0
aF0.0
aF0.0
aF3.0
aF0.0
aF1.0
aF4.0
aF0.0
aF0.0
aF2.0
aF2.0
aF2.0
aF3.0
aF2.0
aF3.0
aF3.0
aF2.0
aF2.0
aF1.0
aF1.0
aF0.0
aF1.0
aF0.0
aF3.0
aF3.0
aF1.0
aF2.0
aF3.0
aF1.0
aF0.0
aF0.0
aF2.0
aF1.0
aF0.0
aF1.0
aF0.0
aF0.0
aF3.0
aF1.0
aF2.0
aF1.0
aF0.0
aF4.0
aF1.0
aF1.0
aF2.0
aF4.0
aF1.0
aF1.0
aF0.0
aF0.0
aF2.0
aF0.0
aF0.0
aF3.0
aF1.0
aF1.0
aF0.0
aF0.0
aF0.0
aF1.0
aF0.0
aF4.0
aF4.0
aF1.0
aF6.0
aF2.0
aF1.0
aF1.0
aF4.0
aF0.0
aF1.0
aF3.0
aF0.0
aF5.0
aF2.0
aF2.0
aF3.0
aF0.0
aF1.0
aF1.0
aF1.0
aF1.0
aF0.0
aF0.0
aF1.0
aF0.0
aF2.0
aF1.0
aF2.0
aF3.0
aF1.0
aF0.0
aF2.0
aF0.0
aF0.0
aF1.0
aF1.0
aF2.0
aF2.0
aF3.0
aF3.0
aF0.0
aF3.0
aF2.0
aF2.0
aF2.0
aF0.0
aF2.0
aF3.0
aF2.0
aF1.0
aF1.0
aF2.0
aF2.0
aF0.0
aF1.0
aF1.0
aF2.0
aF1.0
aF2.0
aF2.0
aF4.0
aF2.0
aF1.0
aF3.0
aF0.0
aF0.0
aF0.0
aF0.0
aF1.0
aF2.0
aF0.0
aF1.0
aF2.0
aF2.0
aF0.0
aF0.0
aF0.0
aF0.0
aF2.0
aF0.0
aF3.0
aF0.0
aF1.0
aF0.0
aF3.0
aF0.0
aF1.0
aF2.0
aF1.0
aF0.0
aF0.0
aF3.0
aF5.0
aF3.0
aF2.0
aF1.0
aF4.0
aF5.0
aF0.0
aF1.0
aF2.0
aF1.0
aF0.0
aF1.0
aF0.0
aF1.0
aF4.0
aF2.0
aF2.0
aF3.0
aF1.0
aF0.0
aF1.0
aF0.0
aF0.0
aF4.0
aF3.0
aF5.0
aF0.0
aF2.0
aF1.0
aF3.0
aF0.0
aF2.0
aF0.0
aF0.0
aF1.0
aF1.0
aF0.0
aF3.0
aF2.0
aF0.0
aF0.0
aF1.0
aF0.0
aF1.0
aF1.0
aF3.0
aF1.0
aF2.0
aF0.0
aF2.0
aF1.0
aF0.0
aF2.0
aF2.0
aF4.0
aF0.0
aF4.0
aF7.0
aF0.0
aF0.0
aF2.0
aF2.0
aF0.0
aF0.0
aF0.0
aF0.0
aF2.0
aF1.0
aF1.0
aF0.0
aF4.0
aF3.0
aF0.0
aF3.0
aF3.0
aF0.0
aF1.0
aF5.0
aF1.0
aF0.0
aF0.0
aF4.0
aF3.0
aF1.0
aF1.0
aF1.0
aF3.0
aF2.0
aF3.0
aF0.0
aF0.0
aF3.0
aF0.0
aF0.0
aF1.0
aF0.0
aF2.0
aF2.0
aF3.0
aF0.0
aF2.0
aF3.0
aF2.0
aF2.0
aF1.0
aF1.0
aF1.0
aF3.0
aF2.0
aF2.0
aF1.0
aF3.0
aF0.0
aF1.0
aF4.0
aF0.0
aF1.0
aF1.0
aF2.0
aF2.0
aF0.0
aF1.0
aF0.0
aF1.0
aF3.0
aF3.0
aF1.0
aF4.0
aF0.0
aF2.0
aF1.0
aF2.0
aF0.0
aF1.0
aF2.0
aF2.0
aF1.0
aF2.0
aF0.0
aF3.0
aF2.0
aF0.0
aF2.0
aF3.0
aF0.0
aF1.0
aF3.0
aF2.0
aF3.0
aF2.0
aF2.0
aF2.0
aF0.0
aF8.0
aF3.0
aF2.0
aF0.0
aF2.0
aF3.0
aF6.0
aF4.0
aF2.0
aF1.0
aF2.0
aF2.0
aF1.0
aF2.0
aF4.0
aF1.0
aF1.0
aF3.0
aF3.0
aF3.0
aF1.0
aF1.0
aF1.0
aF0.0
aF3.0
aF0.0
aF1.0
aF2.0
aF2.0
aF0.0
aF2.0
aF2.0
aF1.0
aF1.0
aF1.0
aF2.0
aF4.0
aF3.0
aF3.0
aF0.0
aF0.0
aF3.0
aF3.0
aF3.0
aF0.0
aF3.0
aF5.0
aF2.0
aF0.0
aF2.0
aF3.0
aF2.0
aF0.0
aF1.0
aF0.0
aF6.0
aF4.0
aF2.0
aF0.0
aF0.0
aF1.0
aF2.0
aF2.0
aF2.0
aF1.0
aF5.0
aF2.0
aF5.0
aF1.0
aF1.0
aF3.0
aF1.0
aF3.0
aF4.0
aF1.0
aF0.0
aF2.0
aF2.0
aF2.0
aF2.0
aF3.0
aF2.0
aF1.0
aF2.0
aF0.0
aF2.0
aF0.0
aF2.0
aF1.0
aF3.0
aF1.0
aF1.0
aF0.0
aF2.0
aF6.0
aF4.0
aF0.0
aF2.0
aF0.0
aF2.0
aF1.0
aF2.0
aF2.0
aF2.0
aF1.0
aF2.0
aF0.0
aF0.0
aF1.0
aF2.0
aF0.0
aF0.0
aF1.0
aF0.0
aF0.0
aF0.0
aF1.0
aF3.0
aF1.0
aF1.0
aF3.0
aF3.0
aF3.0
aF4.0
aF3.0
aF3.0
aF2.0
aF2.0
aF3.0
aF2.0
aF3.0
aF2.0
aF2.0
aF4.0
aF3.0
aF0.0
aF0.0
aF0.0
aF4.0
aF1.0
aF0.0
aF3.0
aF4.0
aF3.0
aF0.0
aF3.0
aF5.0
aF1.0
aF1.0
aF2.0
aF2.0
aF2.0
aF2.0
aF4.0
aF1.0
aF3.0
aF1.0
aF4.0
aF3.0
aF2.0
aF0.0
aF0.0
aF4.0
aF5.0
aF0.0
aF3.0
aF2.0
aF3.0
aF2.0
aF5.0
aF0.0
aF1.0
aF3.0
aF5.0
aF1.0
aF1.0
aF3.0
aF2.0
aF2.0
aF1.0
aF0.0
aF2.0
aF2.0
aF5.0
aF2.0
aF0.0
aF2.0
aF4.0
aF5.0
aF1.0
aF3.0
aF4.0
aF4.0
aF6.0
aF1.0
aF4.0
aF1.0
aF3.0
aF3.0
aF2.0
aF0.0
aF0.0
aF1.0
aF0.0
aF4.0
aF4.0
aF2.0
aF4.0
aF2.0
aF0.0
aF3.0
aF0.0
aF4.0
aF0.0
aF2.0
aF1.0
aF1.0
aF2.0
aF2.0
aF3.0
aF0.0
aF1.0
aF2.0
aF2.0
aF1.0
aF4.0
aF1.0
aF4.0
aF5.0
aF3.0
aF0.0
aF0.0
aF0.0
aF3.0
aF3.0
aF2.0
aF2.0
aF4.0
aF4.0
aF3.0
aF1.0
aF2.0
aF1.0
aF3.0
aF2.0
aF2.0
aF0.0
aF4.0
aF3.0
aF1.0
aF1.0
aF1.0
aF2.0
aF3.0
aF1.0
aF1.0
aF2.0
aF2.0
aF2.0
aF2.0
aF0.0
aF0.0
aF3.0
aF4.0
aF3.0
aF0.0
aF1.0
aF1.0
aF2.0
aF1.0
aF4.0
aF4.0
aF3.0
aF2.0
aF1.0
aF1.0
aF1.0
aF0.0
aF3.0
aF2.0
aF4.0
aF0.0
aF0.0
aF1.0
aF2.0
aF3.0
aF2.0
aF0.0
aF6.0
aF1.0
aF0.0
aF2.0
aF5.0
aF0.0
aF2.0
aF3.0
aF1.0
aF4.0
aF1.0
aF1.0
aF4.0
aF0.0
aF1.0
aF3.0
aF6.0
aF3.0
aF1.0
aF1.0
aF4.0
aF1.0
aF2.0
aF2.0
aF1.0
aF0.0
aF2.0
aF3.0
aF0.0
aF3.0
aF2.0
aF1.0
aF3.0
aF3.0
aF0.0
aF1.0
aF3.0
aF5.0
aF1.0
aF1.0
aF2.0
aF3.0
aF1.0
aF3.0
aF2.0
aF5.0
aF1.0
aF2.0
aF3.0
aF0.0
aF0.0
aF0.0
aF0.0
aF3.0
aF2.0
aF1.0
aF0.0
aF2.0
aF2.0
aF1.0
aF1.0
aF6.0
aF2.0
aF1.0
aF3.0
aF1.0
aF3.0
aF1.0
aF2.0
aF0.0
aF2.0
aF1.0
aF1.0
aF3.0
aF4.0
aF4.0
aF6.0
aF0.0
aF4.0
aF2.0
aF1.0
aF0.0
aF0.0
aF2.0
aF2.0
aF0.0
aF1.0
aF2.0
aF0.0
aF0.0
aF0.0
aF3.0
aF0.0
aF4.0
aF2.0
aF2.0
aF1.0
aF0.0
aF2.0
aF1.0
aF2.0
aF2.0
aF2.0
aF2.0
aF1.0
aF3.0
aF4.0
aF0.0
aF2.0
aF2.0
aF0.0
aF2.0
aF4.0
aF3.0
aF5.0
aF1.0
aF2.0
aF2.0
aF2.0
aF0.0
aF2.0
aF1.0
aF0.0
aF3.0
aF1.0
aF2.0
aF0.0
aF0.0
aF2.0
aF1.0
aF1.0
aF1.0
aF3.0
aF2.0
aF0.0
aF3.0
aF1.0
aF3.0
aF0.0
aF0.0
aF1.0
aF1.0
aF2.0
aF1.0
aF2.0
aF4.0
aF2.0
aF3.0
aF3.0
aF3.0
aF1.0
aF1.0
aF0.0
aF1.0
aF0.0
aF3.0
aF2.0
aF1.0
aF2.0
aF1.0
aF0.0
aF3.0
aF1.0
aF3.0
aF2.0
aF0.0
aF2.0
aF2.0
aF3.0
aF2.0
aF3.0
aF3.0
aF0.0
aF0.0
aF6.0
aF3.0
aF0.0
aF2.0
aF2.0
aF3.0
aF2.0
aF3.0
aF3.0
aF0.0
aF3.0
aF3.0
aF0.0
aF2.0
aF0.0
aF3.0
aF6.0
aF0.0
aF1.0
aF0.0
aF1.0
aF2.0
aF3.0
aF1.0
aF0.0
aF1.0
aF5.0
aF1.0
aF3.0
aF3.0
aF1.0
aF1.0
aF1.0
aF0.0
aF0.0
aF0.0
aF2.0
aF2.0
aF0.0
aF2.0
aF1.0
aF2.0
aF0.0
aF2.0
aF3.0
aF0.0
aF2.0
aF2.0
aF1.0
aF6.0
aF4.0
aF1.0
aF0.0
aF4.0
aF2.0
aF2.0
aF2.0
aF2.0
aF1.0
aF4.0
aF2.0
aF1.0
aF0.0
aF2.0
aF0.0
aF3.0
aF7.0
aF2.0
aF3.0
aF3.0
aF0.0
aF2.0
aF0.0
aF2.0
aF1.0
aF0.0
aF3.0
aF0.0
aF4.0
aF4.0
aF4.0
aF0.0
aF2.0
aF3.0
aF1.0
aF0.0
aF2.0
aF2.0
aF2.0
aF1.0
aF3.0
aF2.0
aF0.0
aF3.0
aF4.0
aF1.0
aF2.0
aF0.0
aF0.0
aF1.0
aF2.0
aF3.0
aF1.0
aF2.0
aF0.0
aF0.0
aF2.0
aF4.0
aF4.0
aF1.0
aF1.0
aF3.0
aF4.0
aF2.0
aF0.0
aF1.0
aF2.0
aF1.0
aF1.0
aF0.0
aF5.0
aF1.0
aF2.0
aF2.0
aF5.0
aF1.0
aF2.0
aF2.0
aF0.0
aF4.0
aF3.0
aF1.0
aF3.0
aF0.0
aF0.0
aF0.0
aF3.0
aF4.0
aF1.0
aF0.0
aF0.0
aF3.0
aF2.0
aF11.0
aF1.0
aF4.0
aF1.0
aF1.0
aF1.0
aF0.0
aF3.0
aF4.0
aF0.0
aF1.0
aF4.0
aF1.0
aF4.0
aF3.0
aF2.0
aF4.0
aF1.0
aF1.0
aF4.0
aF1.0
aF3.0
aF1.0
aF2.0
aF2.0
aF0.0
aF0.0
aF5.0
aF3.0
aF5.0
aF0.0
aF2.0
aF3.0
aF2.0
aF3.0
aF2.0
aF4.0
aF1.0
aF6.0
aF2.0
aF1.0
aF0.0
aF4.0
aF1.0
aF2.0
aF1.0
aF4.0
aF0.0
aF1.0
aF3.0
aF4.0
aF1.0
aF2.0
aF2.0
aF1.0
aF0.0
aF2.0
aF0.0
aF1.0
aF1.0
aF1.0
aF3.0
aF0.0
aF0.0
aF0.0
aF0.0
aF0.0
aF1.0
aF1.0
aF0.0
aF0.0
aF1.0
aF0.0
aF0.0
aF3.0
aF3.0
aF0.0
aF0.0
aF0.0
aF3.0
aF1.0
aF1.0
aF4.0
aF3.0
aF3.0
aF3.0
aF2.0
aF0.0
aF4.0
aF1.0
aF1.0
aF0.0
aF2.0
aF1.0
aF1.0
aF1.0
aF0.0
aF1.0
aF2.0
aF1.0
aF0.0
aF1.0
aF2.0
aF1.0
aF3.0
aF1.0
aF1.0
aF3.0
aF1.0
aF3.0
aF0.0
aF0.0
aF2.0
aF0.0
aF4.0
aF2.0
aF4.0
aF1.0
aF3.0
aF0.0
aF0.0
aF3.0
aF0.0
aF3.0
aF3.0
aF1.0
aF2.0
aF2.0
aF3.0
aF0.0
aF1.0
aF2.0
aF3.0
aF0.0
aF0.0
aF2.0
aF1.0
aF5.0
aF3.0
aF5.0
aF2.0
aF3.0
aF2.0
aF0.0
aF0.0
aF0.0
aF3.0
aF2.0
aF1.0
aF4.0
aF1.0
aF9.0
aF3.0
aF5.0
aF0.0
aF0.0
aF0.0
aF0.0
aF1.0
aF1.0
aF4.0
aF1.0
aF0.0
aF2.0
aF2.0
aF1.0
aF2.0
aF2.0
aF5.0
aF2.0
aF2.0
aF1.0
aF4.0
aF1.0
aF2.0
aF0.0
aF0.0
aF2.0
aF3.0
aF2.0
aF2.0
aF0.0
aF1.0
aF2.0
aF1.0
aF2.0
aF5.0
aF0.0
aF2.0
aF2.0
aF3.0
aF1.0
aF4.0
aF0.0
aF2.0
aF1.0
aF2.0
aF0.0
aF4.0
aF3.0
aF2.0
aF1.0
aF6.0
aF3.0
aF2.0
aF4.0
aF3.0
aF0.0
aF0.0
aF1.0
aF3.0
aF0.0
aF3.0
aF2.0
aF0.0
aF2.0
aF1.0
aF3.0
aF1.0
aF1.0
aF3.0
aF1.0
aF5.0
aF3.0
aF0.0
aF0.0
aF3.0
aF2.0
aF1.0
aF2.0
aF3.0
aF4.0
aF1.0
aF2.0
aF0.0
aF4.0
aF0.0
aF3.0
aF3.0
aF0.0
aF3.0
aF0.0
aF0.0
aF1.0
aF1.0
aF3.0
aF2.0
aF1.0
aF4.0
aF6.0
aF2.0
aF4.0
aF3.0
aF1.0
aF5.0
aF1.0
aF5.0
aF2.0
aF3.0
aF0.0
aF4.0
aF3.0
aF1.0
aF2.0
aF3.0
aF4.0
aF1.0
aF3.0
aF1.0
aF2.0
aF1.0
aF2.0
aF2.0
aF1.0
aF2.0
aF4.0
aF0.0
aF0.0
aF2.0
aF1.0
aF5.0
aF0.0
aF1.0
aF2.0
aF5.0
aF0.0
aF3.0
aF1.0
aF1.0
aF2.0
aF2.0
aF1.0
aF2.0
aF1.0
aF5.0
aF1.0
aF4.0
aF0.0
aF1.0
aF1.0
aF2.0
aF4.0
aF4.0
aF1.0
aF4.0
aF0.0
aF2.0
aF3.0
aF0.0
aF0.0
aF0.0
aF0.0
aF2.0
aF2.0
aF1.0
aF2.0
aF2.0
aF2.0
aF2.0
a.