(lp0
F3.0
aF1.0
aF0.0
aF0.0
aF1.0
aF0.0
aF1.0
aF1.0
aF0.0
aF0.0
aF1.0
aF0.0
aF3.0
aF1.0
aF0.0
aF5.0
aF0.0
aF0.0
aF2.0
aF2.0
aF3.0
aF3.0
aF0.0
aF0.0
aF2.0
aF3.0
aF0.0
aF3.0
aF1.0
aF1.0
aF2.0
aF0.0
aF1.0
aF1.0
aF0.0
aF1.0
aF5.0
aF2.0
aF0.0
aF1.0
aF2.0
aF3.0
aF0.0
aF0.0
aF3.0
aF1.0
aF0.0
aF2.0
aF3.0
aF0.0
aF1.0
aF2.0
aF0.0
aF1.0
aF5.0
aF1.0
aF3.0
aF1.0
aF1.0
aF2.0
aF0.0
aF0.0
aF1.0
aF2.0
aF2.0
aF0.0
aF0.0
aF1.0
aF0.0
aF0.0
aF1.0
aF3.0
aF0.0
aF1.0
aF0.0
aF0.0
aF4.0
aF3.0
aF0.0
aF0.0
aF3.0
aF2.0
aF1.0
aF2.0
aF3.0
aF0.0
aF0.0
aF0.0
aF0.0
aF0.0
aF0.0
aF0.0
aF2.0
aF3.0
aF0.0
aF2.0
aF1.0
aF3.0
aF2.0
aF1.0
aF0.0
aF0.0
aF0.0
aF2.0
aF0.0
aF0.0
aF3.0
aF0.0
aF1.0
aF2.0
aF2.0
aF0.0
aF1.0
aF1.0
aF2.0
aF0.0
aF2.0
aF0.0
aF4.0
aF2.0
aF2.0
aF1.0
aF3.0
aF0.0
aF4.0
aF1.0
aF0.0
aF0.0
aF1.0
aF1.0
aF1.0
aF2.0
aF1.0
aF0.0
aF1.0
aF2.0
aF0.0
aF0.0
aF1.0
aF2.0
aF0.0
aF2.0
aF0.0
aF1.0
aF1.0
aF3.0
aF1.0
aF1.0
aF1.0
aF6.0
aF1.0
aF7.0
aF0.0
aF2.0
aF0.0
aF1.0
aF1.0
aF1.0
aF1.0
aF1.0
aF0.0
aF0.0
aF1.0
aF4.0
aF0.0
aF0.0
aF3.0
aF2.0
aF2.0
aF2.0
aF0.0
aF0.0
aF3.0
aF0.0
aF3.0
aF0.0
aF2.0
aF0.0
aF1.0
aF0.0
aF1.0
aF2.0
aF1.0
aF3.0
aF4.0
aF3.0
aF0.0
aF4.0
aF1.0
aF3.0
aF0.0
aF0.0
aF2.0
aF4.0
aF2.0
aF0.0
aF0.0
aF3.0
aF3.0
aF4.0
aF2.0
aF1.0
aF3.0
aF1.0
aF1.0
aF0.0
aF2.0
aF6.0
aF2.0
aF2.0
aF0.0
aF1.0
aF0.0
aF1.0
aF1.0
aF0.0
aF3.0
aF0.0
aF0.0
aF2.0
aF0.0
aF1.0
aF1.0
aF2.0
aF0.0
aF0.0
aF1.0
aF0.0
aF0.0
aF3.0
aF2.0
aF0.0
aF3.0
aF0.0
aF0.0
aF0.0
aF3.0
aF1.0
aF0.0
aF0.0
aF1.0
aF0.0
aF2.0
aF0.0
aF0.0
aF0.0
aF1.0
aF1.0
aF0.0
aF4.0
aF0.0
aF2.0
aF2.0
aF3.0
aF1.0
aF3.0
aF0.0
aF3.0
aF2.0
aF0.0
aF1.0
aF2.0
aF2.0
aF1.0
aF0.0
aF2.0
aF1.0
aF0.0
aF3.0
aF0.0
aF1.0
aF0.0
aF2.0
aF2.0
aF0.0
aF2.0
aF0.0
aF5.0
aF0.0
aF2.0
aF0.0
aF3.0
aF0.0
aF1.0
aF2.0
aF0.0
aF0.0
aF4.0
aF0.0
aF0.0
aF4.0
aF2.0
aF4.0
aF1.0
aF0.0
aF2.0
aF2.0
aF0.0
aF4.0
aF1.0
aF2.0
aF0.0
aF2.0
aF1.0
aF3.0
aF1.0
aF1.0
aF0.0
aF2.0
aF0.0
aF2.0
aF3.0
aF3.0
aF3.0
aF1.0
aF1.0
aF0.0
aF3.0
aF1.0
aF2.0
aF3.0
aF0.0
aF0.0
aF2.0
aF3.0
aF2.0
aF0.0
aF2.0
aF1.0
aF2.0
aF2.0
aF0.0
aF0.0
aF0.0
aF1.0
aF3.0
aF1.0
aF0.0
aF4.0
aF0.0
aF0.0
aF3.0
aF2.0
aF2.0
aF2.0
aF4.0
aF1.0
aF3.0
aF3.0
aF0.0
aF2.0
aF0.0
aF6.0
aF2.0
aF2.0
aF3.0
aF5.0
aF2.0
aF2.0
aF2.0
aF1.0
aF5.0
aF0.0
aF3.0
aF0.0
aF0.0
aF2.0
aF1.0
aF3.0
aF0.0
aF0.0
aF0.0
aF0.0
aF3.0
aF1.0
aF3.0
aF0.0
aF1.0
aF0.0
aF0.0
aF1.0
aF0.0
aF2.0
aF4.0
aF2.0
aF1.0
aF2.0
aF0.0
aF3.0
aF5.0
aF0.0
aF1.0
aF2.0
aF2.0
aF0.0
aF2.0
aF1.0
aF1.0
aF0.0
aF0.0
aF0.0
aF0.0
aF1.0
aF1.0
aF0.0
aF0.0
aF0.0
aF3.0
aF2.0
aF1.0
aF0.0
aF0.0
aF2.0
aF2.0
aF0.0
aF0.0
aF2.0
aF3.0
aF0.0
aF1.0
aF3.0
aF4.0
aF0.0
aF0.0
aF1.0
aF3.0
aF0.0
aF1.0
aF4.0
aF5.0
aF0.0
aF2.0
aF1.0
aF2.0
aF5.0
aF0.0
aF3.0
aF2.0
aF2.0
aF0.0
aF3.0
aF1.0
aF6.0
aF0.0
aF1.0
aF2.0
aF2.0
aF0.0
aF1.0
aF4.0
aF4.0
aF0.0
aF2.0
aF0.0
aF3.0
aF2.0
aF2.0
aF0.0
aF3.0
aF0.0
aF2.0
aF3.0
aF2.0
aF0.0
aF0.0
aF1.0
aF3.0
aF0.0
aF5.0
aF2.0
aF1.0
aF0.0
aF0.0
aF0.0
aF0.0
aF2.0
aF2.0
aF2.0
aF0.0
aF2.0
aF1.0
aF2.0
aF2.0
aF1.0
aF1.0
aF0.0
aF1.0
aF2.0
aF4.0
aF1.0
aF0.0
aF0.0
aF0.0
aF1.0
aF1.0
aF5.0
aF0.0
aF2.0
aF1.0
aF0.0
aF0.0
aF2.0
aF2.0
aF2.0
aF2.0
aF2.0
aF1.0
aF0.0
aF1.0
aF2.0
aF2.0
aF3.0
aF0.0
aF0.0
aF0.0
aF1.0
aF0.0
aF1.0
aF2.0
aF4.0
aF2.0
aF1.0
aF3.0
aF2.0
aF0.0
aF3.0
aF0.0
aF0.0
aF1.0
aF1.0
aF0.0
aF0.0
aF1.0
aF0.0
aF2.0
aF0.0
aF1.0
aF2.0
aF1.0
aF5.0
aF2.0
aF2.0
aF1.0
aF0.0
aF3.0
aF2.0
aF1.0
aF0.0
aF0.0
aF2.0
aF0.0
aF1.0
aF1.0
aF0.0
aF1.0
aF1.0
aF2.0
aF1.0
aF4.0
aF2.0
aF3.0
aF1.0
aF4.0
aF0.0
aF3.0
aF3.0
aF1.0
aF3.0
aF2.0
aF3.0
aF2.0
aF2.0
aF0.0
aF1.0
aF3.0
aF0.0
aF2.0
aF3.0
aF3.0
aF0.0
aF0.0
aF0.0
aF0.0
aF0.0
aF2.0
aF2.0
aF2.0
aF0.0
aF3.0
aF1.0
aF2.0
aF0.0
aF0.0
aF0.0
aF1.0
aF2.0
aF4.0
aF2.0
aF0.0
aF1.0
aF1.0
aF0.0
aF1.0
aF3.0
aF2.0
aF0.0
aF4.0
aF3.0
aF2.0
aF2.0
aF1.0
aF0.0
aF0.0
aF0.0
aF0.0
aF1.0
aF2.0
aF1.0
aF0.0
aF1.0
aF0.0
aF0.0
aF0.0
aF1.0
aF1.0
aF2.0
aF0.0
aF0.0
aF1.0
aF0.0
aF0.0
aF0.0
aF0.0
aF3.0
aF2.0
aF0.0
aF0.0
aF3.0
aF0.0
aF1.0
aF1.0
aF3.0
aF1.0
aF0.0
aF0.0
aF5.0
aF0.0
aF5.0
aF0.0
aF0.0
aF4.0
aF1.0
aF1.0
aF3.0
aF2.0
aF1.0
aF1.0
aF0.0
aF2.0
aF1.0
aF0.0
aF1.0
aF0.0
aF2.0
aF2.0
aF1.0
aF2.0
aF2.0
aF2.0
aF2.0
aF0.0
aF1.0
aF2.0
aF1.0
aF2.0
aF4.0
aF3.0
aF2.0
aF0.0
aF2.0
aF0.0
aF2.0
aF0.0
aF0.0
aF2.0
aF0.0
aF2.0
aF0.0
aF0.0
aF0.0
aF2.0
aF2.0
aF3.0
aF0.0
aF2.0
aF1.0
aF0.0
aF0.0
aF0.0
aF1.0
aF1.0
aF1.0
aF2.0
aF4.0
aF3.0
aF2.0
aF2.0
aF0.0
aF0.0
aF0.0
aF1.0
aF2.0
aF3.0
aF0.0
aF2.0
aF4.0
aF1.0
aF0.0
aF2.0
aF1.0
aF3.0
aF2.0
aF3.0
aF3.0
aF2.0
aF1.0
aF0.0
aF0.0
aF0.0
aF2.0
aF1.0
aF3.0
aF1.0
aF1.0
aF0.0
aF3.0
aF3.0
aF1.0
aF2.0
aF5.0
aF0.0
aF2.0
aF4.0
aF0.0
aF3.0
aF2.0
aF0.0
aF2.0
aF1.0
aF0.0
aF2.0
aF0.0
aF5.0
aF0.0
aF2.0
aF3.0
aF3.0
aF1.0
aF3.0
aF1.0
aF2.0
aF0.0
aF2.0
aF3.0
aF0.0
aF0.0
aF1.0
aF2.0
aF3.0
aF1.0
aF1.0
aF4.0
aF1.0
aF2.0
aF4.0
aF3.0
aF3.0
aF1.0
aF0.0
aF5.0
aF5.0
aF6.0
aF0.0
aF0.0
aF1.0
aF0.0
aF3.0
aF2.0
aF1.0
aF1.0
aF3.0
aF1.0
aF4.0
aF1.0
aF1.0
aF2.0
aF2.0
aF1.0
aF0.0
aF1.0
aF0.0
aF2.0
aF0.0
aF5.0
aF0.0
aF5.0
aF1.0
aF1.0
aF1.0
aF2.0
aF0.0
aF3.0
aF0.0
aF2.0
aF0.0
aF3.0
aF2.0
aF2.0
aF2.0
aF0.0
aF1.0
aF1.0
aF4.0
aF1.0
aF1.0
aF1.0
aF4.0
aF1.0
aF1.0
aF0.0
aF6.0
aF1.0
aF3.0
aF1.0
aF1.0
aF1.0
aF0.0
aF2.0
aF0.0
aF0.0
aF2.0
aF0.0
aF0.0
aF0.0
aF3.0
aF0.0
aF1.0
aF0.0
aF1.0
aF1.0
aF2.0
aF2.0
aF0.0
aF2.0
aF2.0
aF1.0
aF2.0
aF1.0
aF0.0
aF1.0
aF4.0
aF0.0
aF1.0
aF3.0
aF0.0
aF4.0
aF0.0
aF2.0
aF3.0
aF2.0
aF2.0
aF3.0
aF0.0
aF4.0
aF3.0
aF1.0
aF1.0
aF2.0
aF3.0
aF1.0
aF3.0
aF1.0
aF3.0
aF3.0
aF0.0
aF0.0
aF1.0
aF1.0
aF2.0
aF3.0
aF3.0
aF1.0
aF0.0
aF1.0
aF1.0
aF0.0
aF1.0
aF0.0
aF2.0
aF3.0
aF1.0
aF2.0
aF3.0
aF9.0
aF3.0
aF0.0
aF2.0
aF2.0
aF2.0
aF3.0
aF0.0
aF1.0
aF0.0
aF2.0
aF3.0
aF3.0
aF1.0
aF4.0
aF1.0
aF1.0
aF3.0
aF1.0
aF3.0
aF1.0
aF3.0
aF3.0
aF1.0
aF3.0
aF3.0
aF0.0
aF4.0
aF3.0
aF1.0
aF0.0
aF0.0
aF3.0
aF2.0
aF2.0
aF0.0
aF0.0
aF4.0
aF3.0
aF2.0
aF1.0
aF1.0
aF0.0
aF4.0
aF2.0
aF0.0
aF4.0
aF2.0
aF0.0
aF0.0
aF3.0
aF1.0
aF3.0
aF2.0
aF2.0
aF4.0
aF1.0
aF2.0
aF2.0
aF0.0
aF2.0
aF2.0
aF4.0
aF3.0
aF1.0
aF3.0
aF2.0
aF4.0
aF2.0
aF2.0
aF3.0
aF1.0
aF2.0
aF3.0
aF2.0
aF0.0
aF1.0
aF8.0
aF4.0
aF0.0
aF3.0
aF3.0
aF2.0
aF2.0
aF0.0
aF0.0
aF0.0
aF0.0
aF2.0
aF0.0
aF1.0
aF1.0
aF2.0
aF1.0
aF0.0
aF0.0
aF0.0
aF2.0
aF4.0
aF3.0
aF1.0
aF2.0
aF0.0
aF1.0
aF0.0
aF0.0
aF2.0
aF3.0
aF3.0
aF1.0
aF0.0
aF1.0
aF0.0
aF3.0
aF0.0
aF2.0
aF2.0
aF3.0
aF0.0
aF3.0
aF2.0
aF1.0
aF2.0
aF3.0
aF0.0
aF0.0
aF5.0
aF0.0
aF3.0
aF3.0
aF1.0
aF3.0
aF5.0
aF4.0
aF0.0
aF4.0
aF1.0
aF4.0
aF1.0
aF1.0
aF3.0
aF1.0
aF4.0
aF4.0
aF1.0
aF3.0
aF2.0
aF0.0
aF1.0
aF1.0
aF0.0
aF3.0
aF2.0
aF1.0
aF3.0
aF2.0
aF3.0
aF1.0
aF1.0
aF0.0
aF2.0
aF3.0
aF2.0
aF3.0
aF2.0
aF1.0
aF3.0
aF3.0
aF1.0
aF1.0
aF2.0
aF3.0
aF3.0
aF3.0
aF3.0
aF1.0
aF2.0
aF1.0
aF3.0
aF2.0
aF0.0
aF4.0
aF0.0
aF1.0
aF0.0
aF2.0
aF1.0
aF0.0
aF1.0
aF1.0
aF0.0
aF3.0
aF2.0
aF1.0
aF5.0
aF2.0
aF2.0
aF0.0
aF1.0
aF3.0
aF2.0
aF0.0
aF0.0
aF0.0
aF0.0
aF1.0
aF0.0
aF3.0
aF1.0
aF1.0
aF3.0
aF1.0
aF2.0
aF3.0
aF1.0
aF0.0
aF3.0
aF2.0
aF0.0
aF2.0
aF1.0
aF1.0
aF0.0
aF0.0
aF2.0
aF1.0
aF1.0
aF0.0
aF0.0
aF1.0
aF0.0
aF2.0
aF3.0
aF1.0
aF4.0
aF2.0
aF3.0
aF0.0
aF0.0
aF1.0
aF0.0
aF2.0
aF2.0
aF2.0
aF2.0
aF0.0
aF2.0
aF2.0
aF1.0
aF2.0
aF1.0
aF1.0
aF0.0
aF1.0
aF1.0
aF3.0
aF0.0
aF0.0
aF3.0
aF2.0
aF0.0
aF1.0
aF1.0
aF2.0
aF2.0
aF1.0
aF1.0
aF2.0
aF1.0
aF1.0
aF3.0
aF1.0
aF2.0
aF2.0
aF0.0
aF1.0
aF3.0
aF0.0
aF1.0
aF4.0
aF0.0
aF1.0
aF1.0
aF0.0
aF0.0
aF2.0
aF2.0
aF5.0
aF0.0
aF1.0
aF1.0
aF0.0
aF1.0
aF3.0
aF0.0
aF0.0
aF0.0
aF0.0
aF1.0
aF1.0
aF0.0
aF3.0
aF0.0
aF0.0
aF2.0
aF1.0
aF2.0
aF0.0
aF1.0
aF2.0
aF3.0
aF3.0
aF3.0
aF0.0
aF5.0
aF1.0
aF2.0
aF0.0
aF1.0
aF0.0
aF2.0
aF1.0
aF2.0
aF2.0
aF3.0
aF2.0
aF0.0
aF3.0
aF2.0
aF3.0
aF4.0
aF0.0
aF3.0
aF3.0
aF0.0
aF0.0
aF0.0
aF1.0
aF5.0
aF3.0
aF2.0
aF5.0
aF5.0
aF0.0
aF0.0
aF0.0
aF0.0
aF2.0
aF4.0
aF2.0
aF0.0
aF2.0
aF2.0
aF3.0
aF2.0
aF2.0
aF0.0
aF2.0
aF1.0
aF4.0
aF2.0
aF2.0
aF1.0
aF0.0
aF1.0
aF2.0
aF3.0
aF0.0
aF3.0
aF2.0
aF0.0
aF3.0
aF1.0
aF4.0
aF3.0
aF3.0
aF7.0
aF0.0
aF3.0
aF1.0
aF1.0
aF0.0
aF2.0
aF5.0
aF1.0
aF1.0
aF2.0
aF1.0
aF1.0
aF0.0
aF1.0
aF3.0
aF1.0
aF3.0
aF3.0
aF2.0
aF0.0
aF1.0
aF3.0
aF4.0
aF1.0
aF6.0
aF0.0
aF1.0
aF1.0
aF2.0
aF0.0
aF2.0
aF0.0
aF1.0
aF0.0
aF3.0
aF0.0
aF2.0
aF6.0
aF0.0
aF0.0
aF6.0
aF0.0
aF0.0
aF0.0
aF3.0
aF4.0
aF3.0
aF1.0
aF1.0
aF1.0
aF3.0
aF2.0
aF2.0
aF4.0
aF2.0
aF3.0
aF2.0
aF9.0
aF2.0
aF1.0
aF1.0
aF1.0
aF3.0
aF2.0
aF0.0
aF1.0
aF1.0
aF0.0
aF3.0
aF1.0
aF0.0
aF2.0
aF1.0
aF3.0
aF1.0
aF0.0
aF0.0
aF3.0
aF2.0
aF0.0
aF4.0
aF1.0
aF6.0
aF1.0
aF1.0
aF2.0
aF2.0
aF0.0
aF1.0
aF1.0
aF2.0
aF1.0
aF1.0
aF1.0
aF1.0
aF0.0
aF1.0
aF1.0
aF1.0
aF3.0
aF2.0
aF0.0
aF2.0
aF0.0
aF1.0
aF0.0
aF2.0
aF1.0
aF0.0
aF0.0
aF1.0
aF6.0
aF0.0
aF0.0
aF2.0
aF2.0
aF3.0
aF0.0
aF5.0
aF1.0
aF1.0
aF1.0
aF6.0
aF2.0
aF2.0
aF1.0
aF3.0
aF0.0
aF5.0
aF0.0
aF1.0
aF4.0
aF1.0
aF0.0
aF1.0
aF0.0
aF3.0
aF2.0
aF1.0
aF0.0
aF0.0
aF4.0
aF3.0
aF0.0
aF0.0
aF0.0
aF3.0
aF0.0
aF2.0
aF2.0
aF1.0
aF0.0
aF2.0
aF1.0
aF2.0
aF4.0
aF2.0
aF5.0
aF0.0
aF1.0
aF2.0
aF0.0
aF3.0
aF0.0
aF2.0
aF2.0
aF2.0
aF2.0
aF0.0
aF0.0
aF2.0
aF3.0
aF2.0
aF0.0
aF2.0
aF4.0
aF0.0
aF2.0
aF2.0
aF1.0
aF1.0
aF2.0
aF1.0
aF3.0
aF0.0
aF3.0
aF3.0
aF1.0
aF4.0
aF0.0
aF3.0
aF2.0
aF2.0
aF0.0
aF3.0
aF2.0
aF0.0
aF4.0
aF1.0
aF4.0
aF0.0
aF2.0
aF3.0
aF4.0
aF0.0
aF2.0
aF4.0
aF0.0
aF2.0
aF2.0
aF3.0
aF2.0
aF0.0
aF0.0
aF2.0
aF2.0
aF2.0
aF4.0
aF4.0
aF0.0
aF0.0
aF3.0
aF3.0
aF0.0
aF4.0
aF0.0
aF3.0
aF0.0
aF2.0
aF1.0
aF1.0
aF1.0
aF3.0
aF3.0
aF1.0
aF0.0
aF0.0
aF2.0
aF2.0
aF1.0
aF3.0
aF1.0
aF2.0
aF2.0
aF1.0
aF0.0
aF2.0
aF2.0
aF0.0
aF3.0
aF2.0
aF3.0
aF0.0
aF2.0
aF2.0
aF0.0
aF1.0
aF1.0
aF0.0
aF1.0
aF0.0
aF2.0
aF3.0
aF0.0
aF2.0
aF3.0
aF1.0
aF4.0
aF4.0
aF4.0
aF1.0
aF0.0
aF0.0
aF1.0
aF0.0
aF0.0
aF5.0
aF3.0
aF0.0
aF6.0
aF1.0
aF1.0
aF1.0
aF1.0
aF3.0
aF2.0
aF3.0
aF0.0
aF1.0
aF4.0
aF6.0
aF2.0
aF5.0
aF2.0
aF2.0
aF3.0
aF5.0
aF0.0
aF1.0
aF1.0
aF2.0
aF3.0
aF2.0
aF1.0
aF2.0
aF4.0
aF1.0
aF0.0
aF1.0
aF2.0
aF0.0
aF1.0
aF0.0
aF1.0
aF2.0
aF1.0
aF2.0
aF1.0
aF0.0
aF2.0
aF4.0
aF1.0
aF2.0
aF1.0
aF0.0
aF4.0
aF2.0
aF0.0
aF1.0
aF1.0
aF1.0
aF3.0
aF0.0
aF2.0
aF0.0
aF1.0
aF3.0
aF3.0
aF0.0
aF2.0
aF3.0
aF4.0
aF3.0
aF0.0
aF1.0
aF1.0
aF2.0
aF3.0
aF2.0
aF4.0
aF2.0
aF3.0
aF2.0
aF3.0
aF3.0
aF1.0
aF2.0
aF0.0
aF0.0
aF2.0
aF3.0
aF2.0
aF1.0
aF0.0
aF2.0
aF3.0
aF3.0
aF2.0
aF4.0
aF4.0
aF3.0
aF2.0
aF0.0
aF0.0
aF3.0
aF0.0
aF5.0
aF0.0
aF3.0
aF3.0
aF1.0
aF1.0
aF2.0
aF0.0
aF0.0
aF0.0
aF3.0
aF2.0
aF5.0
aF5.0
aF2.0
aF3.0
aF0.0
aF2.0
aF0.0
aF2.0
aF3.0
aF2.0
aF2.0
aF0.0
aF0.0
aF2.0
aF1.0
aF1.0
aF1.0
aF0.0
aF3.0
aF3.0
aF2.0
aF2.0
aF0.0
aF3.0
aF1.0
aF0.0
aF2.0
aF0.0
aF0.0
aF2.0
aF4.0
aF0.0
aF2.0
aF3.0
aF1.0
aF1.0
aF3.0
aF0.0
aF3.0
aF3.0
aF3.0
aF0.0
aF0.0
aF2.0
aF2.0
aF1.0
aF3.0
aF1.0
aF1.0
aF4.0
aF1.0
aF2.0
aF2.0
aF2.0
aF5.0
aF4.0
aF0.0
aF6.0
aF6.0
aF1.0
aF1.0
aF2.0
aF1.0
aF2.0
aF1.0
aF2.0
aF1.0
aF2.0
aF3.0
aF0.0
aF1.0
aF3.0
aF2.0
aF2.0
aF2.0
aF2.0
aF3.0
aF0.0
aF3.0
aF2.0
aF4.0
aF4.0
aF2.0
aF4.0
aF3.0
aF3.0
aF0.0
aF0.0
aF2.0
aF1.0
aF0.0
aF2.0
aF0.0
aF1.0
aF1.0
aF1.0
aF0.0
aF3.0
aF3.0
aF0.0
aF0.0
aF0.0
aF6.0
aF3.0
aF2.0
aF0.0
aF2.0
aF1.0
aF4.0
aF3.0
aF3.0
aF1.0
aF2.0
aF3.0
aF1.0
aF5.0
aF0.0
aF0.0
aF0.0
aF3.0
aF6.0
aF3.0
aF4.0
aF3.0
aF5.0
aF3.0
aF4.0
aF0.0
aF2.0
aF0.0
aF3.0
aF3.0
aF2.0
aF4.0
aF4.0
aF0.0
aF1.0
aF0.0
aF3.0
aF5.0
aF6.0
aF4.0
aF3.0
aF2.0
aF7.0
aF1.0
aF3.0
aF1.0
aF4.0
aF1.0
aF1.0
aF1.0
aF2.0
aF0.0
aF2.0
aF0.0
aF1.0
aF0.0
aF2.0
aF2.0
aF2.0
aF2.0
aF2.0
aF0.0
aF1.0
aF0.0
aF4.0
aF2.0
aF1.0
aF1.0
aF1.0
aF1.0
aF1.0
aF4.0
aF3.0
aF2.0
aF1.0
aF3.0
aF0.0
aF1.0
aF2.0
aF1.0
aF0.0
aF0.0
aF0.0
aF2.0
aF1.0
aF1.0
aF1.0
aF1.0
aF0.0
aF0.0
aF2.0
aF1.0
aF0.0
aF0.0
aF1.0
aF0.0
aF0.0
aF1.0
aF2.0
aF0.0
aF0.0
aF0.0
aF2.0
aF4.0
aF1.0
aF0.0
aF1.0
aF2.0
aF0.0
aF2.0
aF3.0
aF2.0
aF1.0
aF0.0
aF2.0
aF3.0
aF2.0
aF2.0
aF2.0
aF2.0
aF1.0
aF1.0
aF2.0
aF1.0
aF2.0
aF0.0
aF0.0
aF3.0
aF1.0
aF1.0
aF3.0
aF2.0
aF1.0
aF2.0
aF0.0
aF1.0
aF3.0
aF0.0
aF1.0
aF3.0
aF1.0
aF3.0
aF0.0
aF6.0
aF1.0
aF0.0
aF1.0
aF3.0
aF1.0
aF1.0
aF1.0
aF0.0
aF0.0
aF0.0
aF1.0
aF0.0
aF1.0
aF2.0
aF2.0
aF1.0
aF4.0
aF2.0
aF3.0
aF2.0
aF2.0
aF0.0
aF0.0
aF2.0
aF3.0
aF2.0
aF2.0
aF5.0
aF2.0
aF1.0
aF2.0
aF4.0
aF2.0
aF4.0
aF3.0
aF0.0
aF0.0
aF2.0
aF2.0
aF2.0
aF2.0
aF2.0
aF2.0
aF2.0
aF0.0
aF2.0
aF1.0
aF3.0
aF0.0
aF1.0
aF2.0
aF2.0
aF0.0
aF0.0
aF2.0
aF2.0
aF0.0
aF2.0
aF3.0
aF0.0
aF0.0
aF5.0
aF2.0
aF3.0
aF3.0
aF3.0
aF3.0
aF2.0
aF0.0
aF1.0
aF0.0
aF0.0
aF3.0
aF0.0
aF1.0
aF0.0
aF1.0
aF3.0
aF4.0
aF2.0
aF4.0
aF3.0
aF1.0
aF1.0
aF5.0
aF1.0
aF1.0
aF2.0
aF0.0
aF4.0
aF1.0
aF2.0
aF2.0
aF3.0
aF0.0
aF0.0
aF3.0
aF2.0
aF2.0
aF0.0
aF2.0
aF1.0
aF4.0
aF6.0
aF2.0
aF6.0
aF0.0
aF1.0
aF1.0
aF2.0
aF0.0
aF0.0
aF4.0
aF2.0
aF1.0
aF2.0
aF1.0
aF2.0
aF1.0
aF1.0
aF0.0
aF3.0
aF1.0
aF1.0
aF3.0
aF0.0
aF1.0
aF0.0
aF1.0
aF1.0
aF1.0
aF3.0
aF2.0
aF0.0
aF0.0
aF2.0
aF4.0
aF0.0
aF0.0
aF2.0
aF0.0
aF3.0
aF2.0
aF0.0
aF3.0
aF2.0
aF2.0
aF2.0
aF2.0
aF0.0
aF3.0
aF3.0
aF2.0
aF0.0
aF2.0
aF0.0
aF3.0
aF3.0
aF1.0
aF2.0
aF4.0
aF3.0
aF3.0
aF3.0
aF4.0
aF1.0
aF2.0
aF1.0
aF3.0
aF1.0
aF1.0
aF2.0
aF4.0
aF2.0
aF2.0
aF3.0
aF0.0
aF2.0
aF0.0
aF0.0
aF3.0
aF3.0
aF4.0
aF1.0
aF2.0
aF3.0
aF5.0
aF0.0
aF1.0
aF2.0
aF3.0
aF2.0
aF0.0
aF3.0
aF0.0
aF0.0
aF3.0
aF4.0
aF2.0
aF0.0
aF1.0
aF1.0
aF4.0
aF2.0
aF1.0
aF0.0
aF3.0
aF0.0
aF0.0
aF1.0
aF1.0
aF7.0
aF0.0
aF1.0
aF2.0
aF2.0
aF3.0
aF1.0
aF0.0
aF1.0
aF2.0
aF2.0
aF3.0
aF2.0
aF0.0
aF0.0
aF3.0
aF2.0
aF1.0
aF0.0
aF1.0
aF3.0
aF0.0
aF0.0
aF1.0
aF3.0
aF0.0
aF2.0
aF4.0
aF2.0
aF3.0
aF5.0
aF3.0
aF2.0
aF0.0
aF2.0
aF0.0
aF0.0
aF0.0
aF2.0
aF0.0
aF2.0
aF6.0
aF0.0
aF1.0
aF9.0
aF1.0
aF0.0
aF2.0
aF0.0
aF2.0
aF2.0
aF2.0
aF1.0
aF1.0
aF0.0
aF2.0
aF1.0
aF2.0
aF2.0
aF0.0
aF1.0
aF3.0
aF0.0
aF4.0
aF3.0
aF4.0
aF4.0
aF0.0
aF1.0
aF2.0
aF6.0
aF2.0
aF1.0
aF2.0
aF5.0
aF8.0
aF2.0
aF3.0
aF0.0
aF0.0
aF1.0
aF0.0
aF2.0
aF1.0
aF1.0
aF0.0
aF1.0
aF3.0
aF0.0
aF1.0
aF0.0
aF0.0
aF2.0
aF3.0
aF0.0
aF0.0
aF0.0
aF0.0
aF1.0
aF0.0
aF0.0
aF1.0
aF2.0
aF0.0
aF0.0
aF3.0
aF2.0
aF2.0
aF0.0
aF1.0
aF1.0
aF4.0
aF0.0
aF1.0
aF0.0
aF2.0
aF2.0
aF1.0
aF2.0
aF0.0
aF4.0
aF0.0
aF1.0
aF0.0
aF2.0
aF2.0
aF5.0
aF0.0
aF2.0
aF2.0
aF2.0
aF0.0
aF0.0
aF0.0
aF3.0
aF1.0
aF2.0
aF1.0
aF1.0
aF0.0
aF0.0
aF1.0
aF1.0
aF4.0
aF0.0
aF1.0
aF3.0
aF4.0
aF1.0
aF3.0
aF0.0
aF1.0
aF4.0
aF2.0
aF2.0
aF3.0
aF0.0
aF0.0
aF3.0
aF1.0
aF1.0
aF1.0
aF4.0
aF5.0
aF2.0
aF0.0
aF2.0
aF0.0
aF3.0
aF2.0
aF2.0
aF3.0
aF2.0
aF3.0
aF2.0
aF4.0
aF0.0
aF4.0
aF0.0
aF2.0
aF2.0
aF0.0
aF0.0
aF0.0
aF0.0
aF2.0
aF2.0
aF2.0
aF0.0
aF1.0
aF0.0
aF0.0
aF2.0
aF2.0
aF2.0
aF1.0
aF2.0
aF2.0
aF0.0
aF1.0
aF2.0
aF0.0
aF2.0
aF0.0
aF1.0
aF3.0
aF2.0
aF2.0
aF2.0
aF0.0
aF2.0
aF3.0
aF1.0
aF1.0
aF4.0
aF0.0
aF1.0
aF0.0
aF3.0
aF2.0
aF2.0
aF1.0
aF2.0
aF2.0
aF1.0
aF0.0
aF2.0
aF0.0
aF2.0
aF3.0
aF1.0
aF1.0
aF2.0
aF0.0
aF1.0
aF1.0
aF1.0
aF0.0
aF2.0
aF2.0
aF4.0
aF0.0
aF0.0
aF2.0
aF3.0
aF4.0
aF2.0
aF2.0
aF1.0
aF0.0
aF4.0
aF2.0
aF2.0
aF2.0
aF3.0
aF0.0
aF4.0
aF0.0
aF3.0
aF0.0
aF2.0
aF4.0
aF0.0
aF4.0
aF5.0
aF5.0
aF4.0
aF0.0
aF1.0
aF2.0
aF2.0
aF1.0
aF2.0
aF2.0
aF3.0
aF1.0
aF3.0
aF1.0
aF1.0
aF2.0
aF3.0
aF3.0
aF1.0
aF0.0
aF0.0
aF3.0
aF0.0
aF3.0
aF3.0
aF2.0
aF2.0
aF0.0
aF3.0
aF1.0
aF5.0
aF2.0
aF0.0
aF1.0
aF1.0
aF1.0
aF3.0
aF2.0
aF0.0
aF4.0
aF3.0
aF2.0
aF5.0
aF5.0
aF1.0
aF0.0
aF1.0
aF1.0
aF0.0
aF1.0
aF2.0
aF5.0
aF4.0
aF1.0
aF7.0
aF7.0
aF0.0
aF2.0
aF4.0
aF6.0
aF7.0
aF3.0
aF0.0
aF0.0
aF0.0
aF1.0
aF1.0
aF2.0
aF0.0
aF0.0
aF4.0
aF1.0
aF3.0
aF3.0
aF2.0
aF1.0
aF1.0
aF0.0
aF4.0
aF3.0
aF4.0
aF1.0
aF1.0
aF2.0
aF0.0
aF1.0
aF1.0
aF1.0
aF2.0
aF7.0
aF1.0
aF5.0
aF0.0
aF3.0
aF1.0
aF3.0
aF1.0
aF0.0
aF5.0
aF0.0
aF2.0
aF1.0
aF3.0
aF1.0
aF3.0
aF2.0
aF2.0
aF1.0
aF2.0
aF0.0
aF2.0
aF2.0
aF1.0
aF2.0
aF0.0
aF0.0
aF0.0
aF0.0
aF4.0
aF0.0
aF2.0
aF1.0
aF1.0
aF1.0
aF0.0
aF4.0
aF0.0
aF1.0
aF5.0
aF0.0
aF1.0
aF11.0
aF0.0
aF1.0
aF3.0
aF3.0
aF2.0
aF2.0
aF4.0
aF1.0
aF2.0
aF1.0
aF2.0
aF0.0
aF4.0
aF1.0
aF4.0
aF4.0
aF1.0
aF1.0
aF0.0
aF0.0
aF4.0
aF1.0
aF1.0
aF4.0
aF2.0
aF1.0
aF2.0
aF2.0
aF4.0
aF2.0
aF1.0
aF3.0
aF2.0
aF1.0
aF1.0
aF5.0
aF0.0
aF3.0
aF3.0
aF3.0
aF3.0
aF2.0
aF3.0
aF4.0
aF1.0
aF3.0
aF0.0
aF1.0
aF2.0
aF5.0
aF2.0
aF1.0
aF4.0
aF0.0
aF2.0
aF0.0
aF2.0
aF5.0
aF4.0
aF2.0
aF1.0
aF3.0
aF2.0
aF0.0
aF3.0
aF0.0
aF2.0
aF2.0
aF1.0
aF2.0
aF3.0
aF3.0
aF3.0
aF1.0
aF2.0
aF5.0
aF1.0
aF1.0
aF3.0
aF3.0
aF1.0
aF1.0
aF1.0
aF2.0
aF0.0
aF2.0
aF0.0
aF3.0
aF3.0
aF2.0
aF4.0
aF5.0
aF5.0
aF2.0
aF1.0
aF6.0
aF4.0
aF2.0
aF2.0
aF2.0
aF4.0
aF2.0
aF1.0
aF4.0
aF2.0
aF4.0
aF3.0
aF2.0
aF2.0
aF2.0
aF3.0
aF0.0
aF5.0
aF2.0
aF2.0
aF4.0
aF1.0
aF2.0
aF3.0
aF3.0
aF4.0
aF3.0
aF7.0
aF5.0
aF1.0
aF1.0
aF3.0
aF5.0
aF4.0
aF3.0
aF2.0
aF3.0
aF3.0
aF0.0
aF1.0
aF3.0
aF0.0
aF5.0
aF1.0
aF2.0
aF3.0
aF5.0
aF2.0
aF2.0
aF2.0
aF7.0
aF1.0
aF3.0
aF3.0
aF2.0
aF3.0
aF3.0
aF1.0
aF0.0
aF0.0
aF2.0
aF1.0
aF3.0
aF3.0
aF5.0
aF1.0
aF2.0
aF1.0
aF1.0
aF2.0
aF1.0
aF2.0
aF2.0
aF3.0
aF4.0
aF10.0
aF4.0
aF3.0
aF2.0
aF2.0
aF1.0
aF2.0
aF2.0
aF9.0
aF4.0
aF2.0
aF3.0
aF0.0
aF2.0
aF0.0
aF4.0
aF1.0
aF4.0
aF1.0
aF4.0
aF3.0
aF2.0
aF5.0
aF2.0
aF3.0
aF3.0
aF3.0
aF5.0
aF0.0
aF2.0
aF1.0
aF0.0
aF2.0
aF2.0
aF3.0
aF0.0
aF0.0
aF2.0
aF2.0
aF0.0
aF0.0
aF3.0
aF2.0
aF0.0
aF3.0
aF2.0
aF0.0
aF0.0
aF0.0
aF4.0
aF2.0
aF1.0
aF6.0
aF0.0
aF0.0
aF0.0
aF2.0
aF2.0
aF3.0
aF1.0
aF1.0
aF3.0
aF2.0
aF3.0
aF1.0
aF1.0
aF5.0
aF1.0
aF1.0
aF0.0
aF1.0
aF2.0
aF3.0
aF0.0
aF2.0
aF2.0
aF2.0
aF0.0
aF1.0
aF2.0
aF2.0
aF4.0
aF4.0
aF4.0
aF3.0
aF3.0
aF3.0
aF2.0
aF1.0
aF0.0
aF3.0
aF0.0
aF3.0
aF0.0
aF0.0
aF3.0
aF3.0
aF1.0
aF3.0
aF3.0
aF5.0
aF2.0
aF3.0
aF0.0
aF2.0
aF0.0
aF2.0
aF3.0
aF3.0
aF2.0
aF2.0
aF3.0
aF2.0
aF2.0
aF4.0
aF0.0
aF4.0
aF2.0
aF6.0
aF2.0
aF4.0
aF1.0
aF3.0
aF3.0
aF0.0
aF3.0
aF4.0
aF2.0
aF3.0
aF2.0
aF4.0
aF0.0
aF2.0
aF2.0
aF2.0
aF2.0
aF0.0
aF1.0
aF0.0
aF1.0
aF0.0
aF4.0
aF0.0
aF0.0
aF3.0
aF2.0
aF3.0
aF1.0
aF2.0
aF2.0
aF0.0
aF4.0
aF2.0
aF4.0
aF2.0
aF2.0
aF1.0
aF3.0
aF2.0
aF1.0
aF0.0
aF1.0
aF1.0
aF1.0
aF5.0
aF0.0
aF4.0
aF2.0
aF1.0
aF3.0
aF3.0
aF2.0
aF3.0
aF5.0
aF1.0
aF1.0
aF0.0
aF1.0
aF2.0
aF0.0
aF2.0
aF6.0
aF3.0
aF1.0
aF1.0
aF2.0
aF2.0
aF1.0
aF1.0
aF2.0
aF0.0
aF1.0
aF4.0
aF3.0
aF0.0
aF6.0
aF0.0
aF2.0
aF2.0
aF1.0
aF3.0
aF4.0
aF2.0
aF2.0
aF3.0
aF2.0
aF1.0
aF3.0
aF0.0
aF3.0
aF4.0
aF2.0
aF0.0
aF4.0
aF0.0
aF2.0
aF3.0
aF0.0
aF2.0
aF5.0
aF2.0
aF1.0
aF2.0
aF2.0
aF5.0
aF0.0
aF0.0
aF1.0
aF5.0
aF3.0
aF0.0
aF2.0
aF0.0
aF2.0
aF2.0
aF2.0
aF5.0
aF3.0
aF3.0
aF1.0
aF2.0
aF2.0
aF4.0
aF2.0
aF1.0
aF5.0
aF3.0
aF1.0
aF1.0
aF3.0
aF5.0
aF0.0
aF2.0
aF0.0
aF2.0
aF2.0
aF4.0
aF3.0
aF3.0
aF1.0
aF1.0
aF4.0
aF0.0
aF3.0
aF2.0
aF4.0
aF5.0
aF1.0
aF3.0
aF1.0
aF1.0
aF1.0
aF3.0
aF2.0
aF4.0
aF5.0
aF0.0
aF3.0
aF1.0
aF1.0
aF3.0
aF2.0
aF3.0
aF3.0
aF2.0
aF3.0
aF2.0
aF0.0
aF2.0
aF2.0
aF2.0
aF2.0
aF2.0
aF1.0
aF3.0
aF2.0
aF4.0
aF2.0
aF2.0
aF2.0
aF0.0
aF1.0
aF0.0
aF3.0
aF0.0
aF1.0
aF1.0
aF4.0
aF4.0
aF5.0
aF2.0
aF1.0
aF3.0
aF5.0
aF1.0
aF2.0
aF4.0
aF2.0
aF8.0
aF4.0
aF5.0
aF1.0
aF3.0
aF3.0
aF5.0
aF5.0
aF2.0
aF5.0
aF4.0
aF3.0
aF2.0
aF3.0
aF1.0
aF6.0
aF2.0
aF3.0
aF3.0
aF2.0
aF4.0
aF2.0
aF3.0
aF1.0
aF4.0
aF3.0
aF2.0
aF3.0
aF2.0
aF5.0
aF2.0
aF6.0
aF4.0
aF2.0
aF7.0
aF3.0
aF2.0
aF2.0
aF1.0
aF4.0
aF0.0
aF4.0
aF1.0
aF1.0
aF2.0
aF1.0
aF1.0
aF0.0
aF1.0
aF1.0
aF3.0
aF1.0
aF1.0
aF5.0
aF6.0
aF2.0
aF5.0
aF4.0
aF1.0
aF6.0
aF2.0
aF3.0
aF1.0
aF0.0
aF2.0
aF0.0
aF0.0
aF0.0
aF5.0
aF1.0
aF5.0
aF2.0
aF1.0
aF0.0
aF2.0
aF1.0
aF1.0
aF1.0
aF2.0
aF1.0
aF1.0
aF2.0
aF3.0
aF1.0
aF0.0
aF9.0
aF2.0
aF2.0
aF3.0
aF4.0
aF7.0
aF4.0
aF6.0
aF0.0
aF4.0
aF2.0
aF0.0
aF7.0
aF3.0
aF2.0
aF4.0
aF3.0
aF0.0
aF2.0
aF0.0
aF2.0
aF2.0
aF3.0
aF2.0
aF0.0
aF3.0
aF0.0
aF6.0
aF5.0
aF3.0
aF7.0
aF3.0
aF3.0
aF2.0
aF4.0
aF3.0
aF3.0
aF5.0
aF1.0
aF5.0
aF0.0
aF7.0
aF4.0
aF5.0
aF1.0
aF4.0
aF4.0
aF2.0
aF4.0
aF2.0
aF3.0
aF3.0
aF0.0
aF3.0
aF2.0
aF4.0
aF3.0
aF2.0
aF0.0
aF0.0
aF2.0
aF4.0
aF2.0
aF2.0
aF3.0
aF2.0
aF3.0
aF0.0
aF4.0
aF3.0
aF0.0
aF5.0
aF0.0
aF5.0
aF3.0
aF2.0
aF3.0
aF1.0
aF5.0
aF0.0
aF0.0
aF2.0
aF1.0
aF2.0
aF1.0
aF3.0
aF4.0
aF0.0
aF4.0
aF0.0
aF3.0
aF1.0
aF4.0
aF2.0
aF2.0
aF1.0
aF2.0
aF8.0
aF3.0
aF1.0
aF5.0
aF3.0
aF5.0
aF0.0
aF1.0
aF2.0
aF1.0
aF0.0
aF2.0
aF4.0
aF2.0
aF4.0
aF0.0
aF2.0
aF2.0
aF2.0
aF5.0
aF2.0
aF1.0
aF3.0
aF5.0
aF4.0
aF1.0
aF1.0
aF3.0
aF0.0
aF1.0
aF4.0
aF1.0
aF2.0
aF3.0
aF2.0
aF2.0
aF3.0
aF2.0
aF3.0
aF3.0
aF5.0
aF4.0
aF1.0
aF1.0
aF4.0
aF8.0
aF1.0
aF0.0
aF6.0
aF2.0
aF2.0
aF8.0
aF0.0
aF2.0
aF1.0
aF2.0
aF2.0
aF2.0
aF2.0
aF1.0
aF6.0
aF4.0
aF3.0
aF5.0
aF1.0
aF4.0
aF3.0
aF4.0
aF3.0
aF1.0
aF5.0
aF4.0
aF3.0
aF1.0
aF2.0
aF4.0
aF0.0
aF4.0
aF3.0
aF2.0
aF2.0
aF4.0
aF1.0
aF5.0
aF4.0
aF4.0
aF0.0
aF1.0
aF3.0
aF3.0
aF0.0
aF4.0
aF3.0
aF1.0
aF2.0
aF3.0
aF3.0
aF2.0
aF1.0
aF3.0
aF4.0
aF2.0
aF0.0
aF3.0
aF2.0
aF3.0
aF0.0
aF2.0
aF2.0
aF0.0
aF2.0
aF2.0
aF2.0
aF0.0
aF4.0
aF3.0
aF2.0
aF2.0
aF2.0
aF3.0
aF2.0
aF3.0
aF4.0
aF0.0
aF3.0
aF2.0
aF2.0
aF5.0
aF3.0
aF6.0
aF3.0
aF3.0
aF3.0
aF3.0
aF4.0
aF4.0
aF4.0
aF2.0
aF5.0
aF5.0
aF1.0
aF9.0
aF1.0
aF6.0
aF3.0
aF3.0
aF3.0
aF2.0
aF1.0
aF3.0
aF0.0
aF5.0
aF5.0
aF0.0
aF1.0
aF3.0
aF5.0
aF3.0
aF5.0
aF4.0
aF4.0
aF5.0
aF8.0
aF3.0
aF1.0
aF1.0
aF4.0
aF4.0
aF2.0
aF3.0
aF1.0
aF1.0
aF4.0
aF3.0
aF3.0
aF5.0
aF3.0
aF1.0
aF2.0
aF2.0
aF2.0
aF6.0
aF0.0
aF3.0
aF4.0
aF2.0
aF4.0
aF3.0
aF5.0
aF2.0
aF2.0
aF4.0
aF1.0
aF2.0
aF5.0
aF1.0
aF5.0
aF1.0
aF1.0
aF2.0
aF0.0
aF1.0
aF8.0
aF1.0
aF2.0
aF3.0
aF1.0
aF5.0
aF1.0
aF4.0
aF1.0
aF3.0
aF1.0
aF1.0
aF2.0
aF4.0
aF3.0
aF0.0
aF1.0
aF3.0
aF3.0
aF1.0
aF3.0
aF0.0
aF2.0
aF2.0
aF1.0
aF4.0
aF1.0
aF0.0
aF4.0
aF4.0
aF3.0
aF2.0
aF3.0
aF1.0
aF3.0
aF0.0
aF4.0
aF3.0
aF2.0
aF0.0
aF1.0
aF6.0
aF3.0
aF3.0
aF3.0
aF1.0
aF2.0
aF1.0
aF4.0
aF4.0
aF2.0
aF5.0
aF2.0
aF1.0
aF5.0
aF0.0
aF3.0
aF2.0
aF6.0
aF2.0
aF4.0
aF0.0
aF4.0
aF1.0
aF2.0
aF2.0
aF2.0
aF4.0
aF6.0
aF3.0
aF2.0
aF4.0
aF3.0
aF5.0
aF5.0
aF3.0
aF3.0
aF4.0
aF4.0
aF1.0
aF3.0
aF3.0
aF4.0
aF2.0
aF2.0
aF2.0
aF3.0
aF2.0
aF2.0
aF0.0
aF8.0
aF6.0
aF1.0
aF3.0
aF0.0
aF0.0
aF2.0
aF2.0
aF2.0
aF3.0
aF5.0
aF2.0
aF4.0
aF0.0
aF4.0
aF8.0
aF3.0
aF2.0
aF3.0
aF2.0
aF0.0
aF4.0
aF4.0
aF1.0
aF0.0
aF7.0
aF1.0
aF3.0
aF0.0
aF3.0
aF5.0
aF2.0
aF8.0
aF1.0
aF5.0
aF3.0
aF4.0
aF3.0
aF2.0
aF1.0
aF1.0
aF2.0
aF5.0
aF0.0
aF4.0
aF1.0
aF2.0
aF0.0
aF4.0
aF8.0
aF3.0
aF7.0
aF4.0
aF5.0
aF1.0
aF3.0
aF12.0
aF4.0
aF3.0
aF3.0
aF8.0
aF4.0
aF4.0
aF4.0
aF2.0
aF3.0
aF3.0
aF4.0
aF2.0
aF1.0
aF2.0
aF2.0
aF5.0
aF4.0
aF5.0
aF2.0
aF5.0
aF4.0
aF1.0
aF4.0
aF4.0
aF2.0
aF2.0
aF2.0
aF3.0
aF9.0
aF5.0
aF4.0
aF4.0
aF2.0
aF5.0
aF1.0
aF3.0
aF1.0
aF1.0
aF1.0
aF6.0
aF2.0
aF3.0
aF6.0
aF3.0
aF1.0
aF3.0
aF3.0
aF0.0
aF1.0
aF2.0
aF4.0
aF3.0
aF1.0
aF0.0
aF2.0
aF2.0
aF6.0
aF0.0
aF2.0
aF3.0
aF4.0
aF1.0
aF2.0
aF3.0
aF4.0
aF2.0
aF3.0
aF0.0
aF2.0
aF3.0
aF0.0
aF3.0
aF2.0
aF4.0
aF5.0
aF0.0
aF11.0
aF3.0
aF2.0
aF2.0
aF4.0
aF4.0
aF3.0
aF5.0
aF4.0
aF0.0
aF4.0
aF1.0
aF3.0
aF6.0
aF4.0
aF3.0
aF4.0
aF4.0
aF3.0
aF1.0
aF6.0
aF5.0
aF4.0
aF5.0
aF4.0
aF1.0
aF1.0
aF1.0
aF4.0
aF4.0
aF8.0
aF4.0
aF4.0
aF3.0
aF6.0
aF7.0
aF7.0
aF0.0
aF0.0
aF3.0
aF2.0
aF1.0
aF2.0
aF1.0
aF2.0
aF3.0
aF4.0
aF5.0
aF8.0
aF5.0
aF3.0
aF5.0
aF4.0
aF5.0
aF1.0
aF5.0
aF2.0
aF3.0
aF5.0
aF7.0
aF1.0
aF4.0
aF5.0
aF3.0
aF1.0
aF5.0
aF2.0
aF2.0
aF5.0
aF1.0
aF2.0
aF2.0
aF2.0
aF1.0
aF3.0
aF2.0
aF4.0
aF2.0
aF3.0
aF2.0
aF4.0
aF3.0
aF4.0
aF10.0
aF3.0
aF2.0
aF2.0
aF3.0
aF2.0
aF0.0
aF0.0
aF3.0
aF3.0
aF5.0
aF4.0
aF3.0
aF3.0
aF3.0
aF2.0
aF4.0
aF0.0
aF3.0
aF4.0
aF5.0
aF2.0
aF0.0
aF2.0
aF4.0
aF3.0
aF4.0
aF2.0
aF2.0
aF3.0
aF1.0
aF1.0
aF2.0
aF2.0
aF5.0
aF4.0
aF5.0
aF3.0
aF1.0
aF3.0
aF0.0
aF3.0
aF2.0
aF4.0
aF3.0
aF2.0
aF3.0
aF5.0
aF3.0
aF2.0
aF2.0
aF4.0
aF3.0
aF4.0
aF2.0
aF1.0
aF1.0
aF4.0
aF2.0
aF3.0
aF3.0
aF5.0
aF3.0
aF0.0
aF5.0
aF2.0
aF4.0
aF5.0
aF4.0
aF1.0
aF2.0
aF4.0
aF4.0
aF2.0
aF2.0
aF0.0
aF4.0
aF4.0
aF5.0
aF4.0
aF5.0
aF3.0
aF4.0
aF6.0
aF3.0
aF4.0
aF4.0
aF6.0
aF4.0
aF2.0
aF5.0
aF3.0
aF7.0
aF5.0
aF5.0
aF5.0
aF3.0
aF5.0
aF3.0
aF4.0
aF4.0
aF1.0
aF2.0
aF2.0
aF3.0
aF6.0
aF5.0
aF5.0
aF2.0
aF4.0
aF5.0
aF2.0
aF3.0
aF2.0
aF2.0
aF1.0
aF4.0
aF3.0
aF3.0
aF3.0
aF1.0
aF1.0
aF2.0
aF4.0
aF3.0
aF2.0
aF5.0
aF4.0
aF3.0
aF2.0
aF2.0
aF2.0
aF5.0
aF2.0
aF1.0
aF3.0
aF2.0
aF3.0
aF0.0
aF1.0
aF3.0
aF5.0
aF3.0
aF5.0
aF1.0
aF6.0
aF4.0
aF2.0
aF6.0
aF2.0
aF0.0
aF1.0
aF0.0
aF2.0
aF8.0
aF1.0
aF1.0
aF1.0
aF3.0
aF3.0
aF2.0
aF1.0
aF1.0
aF2.0
aF1.0
aF3.0
aF4.0
aF1.0
aF4.0
aF2.0
aF2.0
aF3.0
aF2.0
aF2.0
aF1.0
aF3.0
aF5.0
aF2.0
aF2.0
aF5.0
aF1.0
aF6.0
aF4.0
aF3.0
aF3.0
aF2.0
aF4.0
aF7.0
aF3.0
aF5.0
aF1.0
aF3.0
aF2.0
aF3.0
aF4.0
aF3.0
aF5.0
aF2.0
aF4.0
aF1.0
aF5.0
aF4.0
aF3.0
aF2.0
aF5.0
aF6.0
aF6.0
aF3.0
aF7.0
aF3.0
aF5.0
aF2.0
aF5.0
aF1.0
aF3.0
aF3.0
aF2.0
aF3.0
aF5.0
aF4.0
aF2.0
aF1.0
aF3.0
aF0.0
aF3.0
aF5.0
aF2.0
aF2.0
aF1.0
aF0.0
aF1.0
aF1.0
aF1.0
aF2.0
aF3.0
aF1.0
aF5.0
aF1.0
aF3.0
aF2.0
aF2.0
aF3.0
aF5.0
aF1.0
aF2.0
aF2.0
aF2.0
aF3.0
aF0.0
aF0.0
aF2.0
aF1.0
aF2.0
aF5.0
aF0.0
aF3.0
aF2.0
aF1.0
aF1.0
aF5.0
aF3.0
aF3.0
aF3.0
aF11.0
aF3.0
aF5.0
aF5.0
aF4.0
aF2.0
aF6.0
aF3.0
aF3.0
aF6.0
aF2.0
aF5.0
aF2.0
aF3.0
aF4.0
aF3.0
aF0.0
aF12.0
aF3.0
aF3.0
aF4.0
aF1.0
aF4.0
aF4.0
aF1.0
aF6.0
aF5.0
aF3.0
aF3.0
aF11.0
aF4.0
aF4.0
aF10.0
aF11.0
aF4.0
aF3.0
aF4.0
aF3.0
aF5.0
aF6.0
aF6.0
aF8.0
aF4.0
aF6.0
aF4.0
aF2.0
aF0.0
aF2.0
aF1.0
aF3.0
aF2.0
aF1.0
aF7.0
aF10.0
aF2.0
aF4.0
aF6.0
aF4.0
aF3.0
aF2.0
aF5.0
aF2.0
aF6.0
aF0.0
aF4.0
aF7.0
aF4.0
aF1.0
aF1.0
aF4.0
aF4.0
aF4.0
aF4.0
aF7.0
aF3.0
aF3.0
aF3.0
aF4.0
aF3.0
aF1.0
aF4.0
aF0.0
aF8.0
aF2.0
aF5.0
aF1.0
aF5.0
aF3.0
aF2.0
aF3.0
aF6.0
aF5.0
aF0.0
aF4.0
aF5.0
aF4.0
aF5.0
aF7.0
aF0.0
aF1.0
aF3.0
aF3.0
aF2.0
aF2.0
aF3.0
aF5.0
aF14.0
aF6.0
aF1.0
aF3.0
aF5.0
aF4.0
aF5.0
aF2.0
aF2.0
aF4.0
aF1.0
aF3.0
aF6.0
aF4.0
aF3.0
aF2.0
aF5.0
aF0.0
aF3.0
aF2.0
aF5.0
aF3.0
aF2.0
aF3.0
aF5.0
aF3.0
aF2.0
aF3.0
aF3.0
aF4.0
aF4.0
aF4.0
aF5.0
aF2.0
aF2.0
aF3.0
aF3.0
aF3.0
aF4.0
aF2.0
aF2.0
aF4.0
aF3.0
aF4.0
aF4.0
aF0.0
aF2.0
aF4.0
aF5.0
aF5.0
aF2.0
aF6.0
aF2.0
aF5.0
aF3.0
aF4.0
aF0.0
aF5.0
aF2.0
aF4.0
aF3.0
aF1.0
aF4.0
aF2.0
aF5.0
aF3.0
aF3.0
aF1.0
aF2.0
aF4.0
aF7.0
aF3.0
aF5.0
aF4.0
aF3.0
aF3.0
aF4.0
aF5.0
aF6.0
aF6.0
aF5.0
aF5.0
aF5.0
aF0.0
aF6.0
aF6.0
aF2.0
aF7.0
aF6.0
aF5.0
aF8.0
aF6.0
aF6.0
aF4.0
aF5.0
aF2.0
aF6.0
aF5.0
aF7.0
aF6.0
aF4.0
aF2.0
aF3.0
aF5.0
aF1.0
aF13.0
aF3.0
aF11.0
aF4.0
aF3.0
aF7.0
aF6.0
aF4.0
aF2.0
aF6.0
aF3.0
aF2.0
aF3.0
aF2.0
aF6.0
aF7.0
aF5.0
aF3.0
aF3.0
aF4.0
aF3.0
aF2.0
aF3.0
aF3.0
aF4.0
aF2.0
aF3.0
aF1.0
aF2.0
aF3.0
aF4.0
aF2.0
aF5.0
aF2.0
aF5.0
aF6.0
aF4.0
aF3.0
aF1.0
aF3.0
aF3.0
aF3.0
aF3.0
aF3.0
aF5.0
aF2.0
aF5.0
aF1.0
aF3.0
aF6.0
aF2.0
aF4.0
aF4.0
aF4.0
aF3.0
aF0.0
aF1.0
aF3.0
aF3.0
aF5.0
aF3.0
aF5.0
aF3.0
aF4.0
aF6.0
aF2.0
aF5.0
aF3.0
aF4.0
aF3.0
aF1.0
aF8.0
aF3.0
aF3.0
aF2.0
aF7.0
aF0.0
aF3.0
aF1.0
aF5.0
aF3.0
aF3.0
aF2.0
aF9.0
aF4.0
aF5.0
aF5.0
aF4.0
aF4.0
aF2.0
aF5.0
aF4.0
aF5.0
aF2.0
aF4.0
aF5.0
aF7.0
aF7.0
aF8.0
aF3.0
aF4.0
aF3.0
aF4.0
aF4.0
aF8.0
aF9.0
aF3.0
aF2.0
aF4.0
aF4.0
aF3.0
aF2.0
aF4.0
aF3.0
aF2.0
aF1.0
aF3.0
aF3.0
aF2.0
aF3.0
aF1.0
aF2.0
aF4.0
aF1.0
aF5.0
aF2.0
aF3.0
aF3.0
aF6.0
aF4.0
aF4.0
aF1.0
aF3.0
aF2.0
aF1.0
aF1.0
aF3.0
aF1.0
aF2.0
aF0.0
aF4.0
aF2.0
aF2.0
aF2.0
aF6.0
aF2.0
aF2.0
aF0.0
aF0.0
aF2.0
aF2.0
aF1.0
aF3.0
aF5.0
aF6.0
aF4.0
aF1.0
aF2.0
aF0.0
aF3.0
aF5.0
aF3.0
aF3.0
aF7.0
aF2.0
aF2.0
aF2.0
aF2.0
aF3.0
aF1.0
aF0.0
aF0.0
aF3.0
aF2.0
aF2.0
aF13.0
aF4.0
aF3.0
aF1.0
aF2.0
aF4.0
aF1.0
aF4.0
aF1.0
aF2.0
aF1.0
aF6.0
aF2.0
aF1.0
aF1.0
aF2.0
aF4.0
aF2.0
aF1.0
aF2.0
aF1.0
aF3.0
aF5.0
aF2.0
aF2.0
aF1.0
aF3.0
aF3.0
aF2.0
aF2.0
aF3.0
aF3.0
aF2.0
aF4.0
aF2.0
aF3.0
aF3.0
aF4.0
aF3.0
aF3.0
aF3.0
aF4.0
aF2.0
aF2.0
aF3.0
aF3.0
aF1.0
aF1.0
aF3.0
aF3.0
aF2.0
aF0.0
aF1.0
aF3.0
aF2.0
aF1.0
aF3.0
aF1.0
aF2.0
aF3.0
aF3.0
aF4.0
aF2.0
aF3.0
aF3.0
aF5.0
aF1.0
aF2.0
aF3.0
aF6.0
aF3.0
aF2.0
aF3.0
aF3.0
aF0.0
aF3.0
aF0.0
aF3.0
aF3.0
aF2.0
aF6.0
aF0.0
aF2.0
aF4.0
aF3.0
aF2.0
aF3.0
aF3.0
aF4.0
aF4.0
aF4.0
aF4.0
aF4.0
aF3.0
aF2.0
aF5.0
aF4.0
aF2.0
aF5.0
aF4.0
aF2.0
aF3.0
aF4.0
aF6.0
aF6.0
aF11.0
aF2.0
aF3.0
aF3.0
aF3.0
aF7.0
aF6.0
aF5.0
aF5.0
aF7.0
aF6.0
aF6.0
aF3.0
aF3.0
aF3.0
aF5.0
aF4.0
aF3.0
aF5.0
aF6.0
aF3.0
aF3.0
aF9.0
aF1.0
aF1.0
aF0.0
aF6.0
aF8.0
aF2.0
aF5.0
aF1.0
aF3.0
aF5.0
aF7.0
aF0.0
aF4.0
aF6.0
aF4.0
aF6.0
aF3.0
aF3.0
aF7.0
aF4.0
aF11.0
aF5.0
aF0.0
aF6.0
aF5.0
aF3.0
aF5.0
aF2.0
aF4.0
aF3.0
aF7.0
aF1.0
aF10.0
aF5.0
aF6.0
aF3.0
aF6.0
aF1.0
aF7.0
aF5.0
aF4.0
aF4.0
aF4.0
aF4.0
aF4.0
aF3.0
aF5.0
aF4.0
aF7.0
aF6.0
aF3.0
aF5.0
aF7.0
aF5.0
aF4.0
aF6.0
aF12.0
aF8.0
aF7.0
aF4.0
aF4.0
aF6.0
aF3.0
aF2.0
aF9.0
aF6.0
aF6.0
aF6.0
aF7.0
aF3.0
aF5.0
aF4.0
aF8.0
aF5.0
aF4.0
aF7.0
aF4.0
aF4.0
aF1.0
aF4.0
aF3.0
aF3.0
aF4.0
aF5.0
aF6.0
aF5.0
aF3.0
aF1.0
aF3.0
aF0.0
aF6.0
aF9.0
aF3.0
aF9.0
aF5.0
aF6.0
aF4.0
aF3.0
aF0.0
aF0.0
aF2.0
aF1.0
aF2.0
aF2.0
aF3.0
aF4.0
aF6.0
aF2.0
aF4.0
aF4.0
aF1.0
aF1.0
aF1.0
aF1.0
aF7.0
aF2.0
aF7.0
aF7.0
aF1.0
aF1.0
aF1.0
aF13.0
aF4.0
aF2.0
aF5.0
aF6.0
aF4.0
aF6.0
aF3.0
aF12.0
aF4.0
aF7.0
aF4.0
aF4.0
aF2.0
aF0.0
aF3.0
aF2.0
aF1.0
aF0.0
aF6.0
aF1.0
aF4.0
aF4.0
aF2.0
aF2.0
aF1.0
aF1.0
aF3.0
aF3.0
aF6.0
aF3.0
aF3.0
aF5.0
aF5.0
aF2.0
aF3.0
aF4.0
aF1.0
aF2.0
aF3.0
aF1.0
aF0.0
aF2.0
aF4.0
aF2.0
aF6.0
aF3.0
aF2.0
aF1.0
aF2.0
aF3.0
aF1.0
aF4.0
aF5.0
aF1.0
aF2.0
aF2.0
aF2.0
aF4.0
aF0.0
aF0.0
aF0.0
aF2.0
aF2.0
aF1.0
aF0.0
aF2.0
aF1.0
aF3.0
aF1.0
aF5.0
aF0.0
aF0.0
aF4.0
aF1.0
aF2.0
aF4.0
aF4.0
aF1.0
aF3.0
aF0.0
aF1.0
aF4.0
aF0.0
aF2.0
aF1.0
aF0.0
aF0.0
aF2.0
aF4.0
aF1.0
aF1.0
aF2.0
aF1.0
aF1.0
aF1.0
aF3.0
aF3.0
aF1.0
aF2.0
aF3.0
aF1.0
aF1.0
aF1.0
aF2.0
aF1.0
aF1.0
aF0.0
aF0.0
aF0.0
aF1.0
aF0.0
aF0.0
aF2.0
aF1.0
aF2.0
aF1.0
aF3.0
aF0.0
aF4.0
aF1.0
aF4.0
aF3.0
aF1.0
aF6.0
aF2.0
aF0.0
aF3.0
aF3.0
aF5.0
aF3.0
aF3.0
aF5.0
aF0.0
aF3.0
aF3.0
aF4.0
aF4.0
aF3.0
aF2.0
aF4.0
aF2.0
aF4.0
aF2.0
aF1.0
aF1.0
aF5.0
aF1.0
aF0.0
aF3.0
aF5.0
aF3.0
aF1.0
aF1.0
aF2.0
aF4.0
aF2.0
aF2.0
aF4.0
aF3.0
aF4.0
aF3.0
aF3.0
aF0.0
aF2.0
aF3.0
aF3.0
aF3.0
aF3.0
aF5.0
aF1.0
aF5.0
aF3.0
aF5.0
aF7.0
aF0.0
aF3.0
aF4.0
aF1.0
aF0.0
aF2.0
aF2.0
aF3.0
aF2.0
aF3.0
aF1.0
aF4.0
aF5.0
aF2.0
aF1.0
aF7.0
aF6.0
aF3.0
aF3.0
aF3.0
aF3.0
aF8.0
aF2.0
aF1.0
aF2.0
aF3.0
aF3.0
aF3.0
aF5.0
aF3.0
aF5.0
aF3.0
aF3.0
aF4.0
aF4.0
aF10.0
aF2.0
aF2.0
aF5.0
aF2.0
aF3.0
aF5.0
aF3.0
aF3.0
aF4.0
aF4.0
aF8.0
aF2.0
aF0.0
aF1.0
aF4.0
aF5.0
aF13.0
aF10.0
aF3.0
aF3.0
aF4.0
aF7.0
aF4.0
aF5.0
aF2.0
aF3.0
aF5.0
aF6.0
aF8.0
aF7.0
aF2.0
aF4.0
aF7.0
aF4.0
aF3.0
aF3.0
aF12.0
aF10.0
aF3.0
aF6.0
aF9.0
aF7.0
aF4.0
aF6.0
aF3.0
aF4.0
aF4.0
aF3.0
aF3.0
aF4.0
aF7.0
aF4.0
aF3.0
aF4.0
aF4.0
aF4.0
aF3.0
aF2.0
aF1.0
aF3.0
aF7.0
aF1.0
aF3.0
aF2.0
aF1.0
aF4.0
aF2.0
aF3.0
aF2.0
aF4.0
aF7.0
aF6.0
aF1.0
aF4.0
aF3.0
aF2.0
aF4.0
aF3.0
aF7.0
aF4.0
aF2.0
aF3.0
aF2.0
aF0.0
aF1.0
aF2.0
aF1.0
aF3.0
aF7.0
aF0.0
aF0.0
aF4.0
aF0.0
aF1.0
aF4.0
aF1.0
aF3.0
aF0.0
aF0.0
aF1.0
aF1.0
aF1.0
aF8.0
aF5.0
aF0.0
aF4.0
aF4.0
aF0.0
aF0.0
aF2.0
aF4.0
aF2.0
aF3.0
aF6.0
aF4.0
aF1.0
aF2.0
aF2.0
aF4.0
aF1.0
aF3.0
aF8.0
aF1.0
aF2.0
aF1.0
aF0.0
aF2.0
aF1.0
aF1.0
aF2.0
aF7.0
aF10.0
aF3.0
aF4.0
aF4.0
aF5.0
aF1.0
aF2.0
aF1.0
aF5.0
aF5.0
aF3.0
aF2.0
aF3.0
aF5.0
aF5.0
aF3.0
aF3.0
aF5.0
aF2.0
aF4.0
aF2.0
aF12.0
aF13.0
aF11.0
aF8.0
aF3.0
aF7.0
aF6.0
aF7.0
aF3.0
aF5.0
aF4.0
aF3.0
aF5.0
aF5.0
aF9.0
aF7.0
aF6.0
aF4.0
aF3.0
aF9.0
aF6.0
aF7.0
aF3.0
aF2.0
aF10.0
aF10.0
aF3.0
aF3.0
aF11.0
aF8.0
aF7.0
aF7.0
aF8.0
aF6.0
aF7.0
aF2.0
aF8.0
aF8.0
aF3.0
aF10.0
aF4.0
aF5.0
aF1.0
aF3.0
aF8.0
aF3.0
aF7.0
aF9.0
aF0.0
aF2.0
aF1.0
aF1.0
aF6.0
aF2.0
aF5.0
aF5.0
aF7.0
aF3.0
aF7.0
aF6.0
aF5.0
aF5.0
aF7.0
aF5.0
aF7.0
aF7.0
aF6.0
aF5.0
aF1.0
aF2.0
aF5.0
aF5.0
aF3.0
aF5.0
aF5.0
aF4.0
aF1.0
aF9.0
aF3.0
aF6.0
aF3.0
aF4.0
aF3.0
aF3.0
aF6.0
aF3.0
aF2.0
aF2.0
aF4.0
aF1.0
aF3.0
aF5.0
aF1.0
aF1.0
aF6.0
aF3.0
aF3.0
aF4.0
aF5.0
aF2.0
aF2.0
aF1.0
aF3.0
aF5.0
aF8.0
aF3.0
aF4.0
aF2.0
aF1.0
aF3.0
aF2.0
aF5.0
aF3.0
aF5.0
aF4.0
aF3.0
aF3.0
aF4.0
aF3.0
aF3.0
aF4.0
aF3.0
aF3.0
aF6.0
aF1.0
aF0.0
aF6.0
aF2.0
aF6.0
aF5.0
aF5.0
aF5.0
aF4.0
aF5.0
aF4.0
aF8.0
aF5.0
aF6.0
aF7.0
aF8.0
aF10.0
aF6.0
aF2.0
aF10.0
aF8.0
aF5.0
aF3.0
aF4.0
aF11.0
aF3.0
aF5.0
aF10.0
aF0.0
aF7.0
aF10.0
aF5.0
aF4.0
aF8.0
aF7.0
aF2.0
aF4.0
aF4.0
aF2.0
aF6.0
aF6.0
aF4.0
aF6.0
aF4.0
aF7.0
aF5.0
aF9.0
aF4.0
aF5.0
aF6.0
aF7.0
aF6.0
aF3.0
aF2.0
aF3.0
aF3.0
aF3.0
aF12.0
aF5.0
aF3.0
aF3.0
aF2.0
aF2.0
aF2.0
aF6.0
aF2.0
aF2.0
aF2.0
aF1.0
aF1.0
aF1.0
aF3.0
aF1.0
aF3.0
aF1.0
aF2.0
aF5.0
aF0.0
aF5.0
aF2.0
aF2.0
aF4.0
aF0.0
aF0.0
aF2.0
aF6.0
aF9.0
aF1.0
aF3.0
aF4.0
aF4.0
aF2.0
aF6.0
aF4.0
aF5.0
aF4.0
aF7.0
aF2.0
aF0.0
aF2.0
aF3.0
aF2.0
aF1.0
aF1.0
aF5.0
aF2.0
aF0.0
aF0.0
aF1.0
aF4.0
aF1.0
aF1.0
aF1.0
aF1.0
aF0.0
aF1.0
aF0.0
aF0.0
aF4.0
aF3.0
aF6.0
aF1.0
aF3.0
aF2.0
aF5.0
aF1.0
aF1.0
aF1.0
aF7.0
aF6.0
aF3.0
aF3.0
aF3.0
aF4.0
aF3.0
aF5.0
aF1.0
aF1.0
aF3.0
aF3.0
aF6.0
aF4.0
aF4.0
aF6.0
aF4.0
aF3.0
aF4.0
aF5.0
aF2.0
aF6.0
aF2.0
aF5.0
aF3.0
aF2.0
aF2.0
aF3.0
aF6.0
aF6.0
aF5.0
aF3.0
aF6.0
aF10.0
aF15.0
aF4.0
aF6.0
aF9.0
aF6.0
aF6.0
aF6.0
aF3.0
aF4.0
aF4.0
aF6.0
aF6.0
aF5.0
aF5.0
aF8.0
aF5.0
aF3.0
aF7.0
aF4.0
aF6.0
aF5.0
aF9.0
aF4.0
aF4.0
aF4.0
aF3.0
aF7.0
aF3.0
aF6.0
aF6.0
aF8.0
aF3.0
aF6.0
aF9.0
aF5.0
aF6.0
aF3.0
aF3.0
aF2.0
aF2.0
aF7.0
aF5.0
aF4.0
aF3.0
aF4.0
aF2.0
aF6.0
aF8.0
aF3.0
aF2.0
aF9.0
aF4.0
aF6.0
aF4.0
aF2.0
aF3.0
aF3.0
aF2.0
aF4.0
aF3.0
aF3.0
aF0.0
aF2.0
aF2.0
aF7.0
aF2.0
aF2.0
aF6.0
aF3.0
aF1.0
aF2.0
aF2.0
aF1.0
aF5.0
aF3.0
aF5.0
aF1.0
aF5.0
aF5.0
aF2.0
aF5.0
aF3.0
aF3.0
aF2.0
aF3.0
aF6.0
aF1.0
aF5.0
aF6.0
aF6.0
aF4.0
aF7.0
aF2.0
aF5.0
aF7.0
aF4.0
aF3.0
aF4.0
aF5.0
aF3.0
aF4.0
aF5.0
aF4.0
aF2.0
aF5.0
aF3.0
aF4.0
aF4.0
aF3.0
aF0.0
aF3.0
aF9.0
aF6.0
aF13.0
aF6.0
aF4.0
aF4.0
aF3.0
aF4.0
aF6.0
aF8.0
aF8.0
aF3.0
aF3.0
aF4.0
aF6.0
aF6.0
aF6.0
aF6.0
aF7.0
aF7.0
aF9.0
aF3.0
aF6.0
aF6.0
aF3.0
aF3.0
aF8.0
aF6.0
aF4.0
aF4.0
aF4.0
aF3.0
aF8.0
aF4.0
aF4.0
aF4.0
aF2.0
aF4.0
aF3.0
aF4.0
aF7.0
aF6.0
aF2.0
aF2.0
aF6.0
aF4.0
aF4.0
aF6.0
aF4.0
aF4.0
aF3.0
aF5.0
aF4.0
aF6.0
aF3.0
aF4.0
aF7.0
aF7.0
aF2.0
aF4.0
aF5.0
aF2.0
aF2.0
aF3.0
aF2.0
aF2.0
aF2.0
aF5.0
aF2.0
aF1.0
aF4.0
aF4.0
aF1.0
aF1.0
aF3.0
aF4.0
aF1.0
aF5.0
aF3.0
aF3.0
aF4.0
aF1.0
aF3.0
aF2.0
aF3.0
aF6.0
aF10.0
aF2.0
aF4.0
aF7.0
aF6.0
aF6.0
aF3.0
aF4.0
aF4.0
aF3.0
aF2.0
aF4.0
aF5.0
aF3.0
aF4.0
aF3.0
aF4.0
aF2.0
aF3.0
aF1.0
aF1.0
aF4.0
aF3.0
aF2.0
aF6.0
aF4.0
aF4.0
aF4.0
aF6.0
aF6.0
aF6.0
aF4.0
aF6.0
aF4.0
aF8.0
aF4.0
aF4.0
aF4.0
aF4.0
aF4.0
aF8.0
aF6.0
aF1.0
aF4.0
aF4.0
aF9.0
aF5.0
aF6.0
aF6.0
aF4.0
aF4.0
aF7.0
aF7.0
aF4.0
aF8.0
aF2.0
aF4.0
aF4.0
aF8.0
aF3.0
aF13.0
aF4.0
aF4.0
aF6.0
aF5.0
aF2.0
aF3.0
aF2.0
aF8.0
aF8.0
aF4.0
aF5.0
aF8.0
aF3.0
aF3.0
aF5.0
aF6.0
aF1.0
aF9.0
aF6.0
aF12.0
aF4.0
aF7.0
aF5.0
aF2.0
aF6.0
aF6.0
aF6.0
aF3.0
aF4.0
aF7.0
aF5.0
aF6.0
aF8.0
aF10.0
aF8.0
aF7.0
aF6.0
aF3.0
aF4.0
aF3.0
aF2.0
aF5.0
aF7.0
aF4.0
aF3.0
aF9.0
aF6.0
aF5.0
aF4.0
aF2.0
aF5.0
aF3.0
aF6.0
aF3.0
aF1.0
aF8.0
aF5.0
aF4.0
aF4.0
aF3.0
aF4.0
aF4.0
aF4.0
aF6.0
aF6.0
aF7.0
aF4.0
aF8.0
aF2.0
aF7.0
aF5.0
aF6.0
aF8.0
aF5.0
aF6.0
aF4.0
aF10.0
aF6.0
aF6.0
aF5.0
aF6.0
aF6.0
aF6.0
aF12.0
aF4.0
aF4.0
aF4.0
aF13.0
aF7.0
aF9.0
aF6.0
aF10.0
aF4.0
aF6.0
aF6.0
aF7.0
aF7.0
aF3.0
aF6.0
aF4.0
aF7.0
aF6.0
aF10.0
aF7.0
aF4.0
aF1.0
aF6.0
aF4.0
aF7.0
aF6.0
aF8.0
aF5.0
aF6.0
aF4.0
aF9.0
aF5.0
aF8.0
aF7.0
aF6.0
aF4.0
aF3.0
aF7.0
aF12.0
aF6.0
aF6.0
aF3.0
aF6.0
aF7.0
aF6.0
aF8.0
aF3.0
aF5.0
aF5.0
aF12.0
aF4.0
aF6.0
aF13.0
aF7.0
aF4.0
aF6.0
aF2.0
aF6.0
aF9.0
aF6.0
aF5.0
aF7.0
aF8.0
aF13.0
aF6.0
aF11.0
aF8.0
aF3.0
aF6.0
aF6.0
aF3.0
aF5.0
aF5.0
aF6.0
aF7.0
aF11.0
aF4.0
aF6.0
aF6.0
aF5.0
aF3.0
aF9.0
aF6.0
aF1.0
aF5.0
aF6.0
aF6.0
aF5.0
aF6.0
aF10.0
aF6.0
aF6.0
aF6.0
aF10.0
aF4.0
aF4.0
aF4.0
aF5.0
aF8.0
aF5.0
aF4.0
aF4.0
aF6.0
aF5.0
aF5.0
aF5.0
aF4.0
aF2.0
aF4.0
aF6.0
aF4.0
aF6.0
aF4.0
aF7.0
aF6.0
aF4.0
aF5.0
aF5.0
aF5.0
aF6.0
aF4.0
aF2.0
aF7.0
aF7.0
aF12.0
aF6.0
aF2.0
aF6.0
aF3.0
aF6.0
aF5.0
aF6.0
aF5.0
aF5.0
aF6.0
aF8.0
aF6.0
aF7.0
aF14.0
aF6.0
aF6.0
aF6.0
aF7.0
aF7.0
aF5.0
aF3.0
aF5.0
aF4.0
aF10.0
aF9.0
aF5.0
aF6.0
aF9.0
aF3.0
aF5.0
aF6.0
aF5.0
aF5.0
aF6.0
aF3.0
aF4.0
aF5.0
aF6.0
aF5.0
aF5.0
aF6.0
aF3.0
aF5.0
aF3.0
aF2.0
aF5.0
aF5.0
aF3.0
aF6.0
aF4.0
aF5.0
aF6.0
aF4.0
aF5.0
aF4.0
aF3.0
aF1.0
aF3.0
aF3.0
aF2.0
aF3.0
aF3.0
aF5.0
aF4.0
aF7.0
aF3.0
aF4.0
aF0.0
aF1.0
aF4.0
aF3.0
aF2.0
aF3.0
aF3.0
aF3.0
aF3.0
aF4.0
aF1.0
aF1.0
aF4.0
aF3.0
aF6.0
aF0.0
aF4.0
aF1.0
aF3.0
aF3.0
aF3.0
aF4.0
aF6.0
aF2.0
aF5.0
aF2.0
aF4.0
aF2.0
aF2.0
aF0.0
aF2.0
aF3.0
aF4.0
aF3.0
aF2.0
aF1.0
aF1.0
aF2.0
aF4.0
aF2.0
aF4.0
aF1.0
aF2.0
aF2.0
aF4.0
aF1.0
aF3.0
aF5.0
aF2.0
aF1.0
aF5.0
aF5.0
aF3.0
aF1.0
aF3.0
aF2.0
aF4.0
aF4.0
aF7.0
aF2.0
aF2.0
aF4.0
aF3.0
aF3.0
aF4.0
aF5.0
aF6.0
aF3.0
aF4.0
aF1.0
aF5.0
aF4.0
aF4.0
aF4.0
aF4.0
aF5.0
aF5.0
aF3.0
aF9.0
aF6.0
aF3.0
aF2.0
aF3.0
aF4.0
aF3.0
aF2.0
aF7.0
aF5.0
aF4.0
aF4.0
aF1.0
aF4.0
aF2.0
aF2.0
aF4.0
aF5.0
aF6.0
aF2.0
aF4.0
aF6.0
aF5.0
aF5.0
aF4.0
aF5.0
aF1.0
aF6.0
aF4.0
aF6.0
aF1.0
aF5.0
aF4.0
aF4.0
aF3.0
aF4.0
aF4.0
aF3.0
aF5.0
aF3.0
aF4.0
aF8.0
aF4.0
aF2.0
aF1.0
aF3.0
aF4.0
aF7.0
aF5.0
aF2.0
aF4.0
aF2.0
aF5.0
aF4.0
aF2.0
aF5.0
aF4.0
aF3.0
aF5.0
aF5.0
aF6.0
aF3.0
aF6.0
aF2.0
aF6.0
aF2.0
aF3.0
aF5.0
aF4.0
aF5.0
aF6.0
aF4.0
aF5.0
aF4.0
aF3.0
aF3.0
aF6.0
aF3.0
aF5.0
aF1.0
aF3.0
aF4.0
aF2.0
aF4.0
aF4.0
aF8.0
aF2.0
aF2.0
aF5.0
aF1.0
aF2.0
aF6.0
aF5.0
aF1.0
aF7.0
aF4.0
aF5.0
aF6.0
aF6.0
aF4.0
aF6.0
aF4.0
aF5.0
aF2.0
aF3.0
aF4.0
aF4.0
aF5.0
aF9.0
aF6.0
aF6.0
aF6.0
aF0.0
aF6.0
aF4.0
aF6.0
aF8.0
aF3.0
aF6.0
aF4.0
aF4.0
aF0.0
aF5.0
aF6.0
aF4.0
aF6.0
aF7.0
aF7.0
aF6.0
aF3.0
aF6.0
aF6.0
aF3.0
aF6.0
aF5.0
aF5.0
aF6.0
aF6.0
aF5.0
aF5.0
aF5.0
aF7.0
aF2.0
aF2.0
aF3.0
aF6.0
aF4.0
aF5.0
aF4.0
aF6.0
aF5.0
aF2.0
aF4.0
aF6.0
aF4.0
aF5.0
aF6.0
aF6.0
aF5.0
aF6.0
aF5.0
aF1.0
aF5.0
aF5.0
aF5.0
aF4.0
aF5.0
aF5.0
aF3.0
aF4.0
aF3.0
aF4.0
aF5.0
aF5.0
aF4.0
aF6.0
aF3.0
aF2.0
aF6.0
aF3.0
aF3.0
aF0.0
aF1.0
aF2.0
aF2.0
aF3.0
aF3.0
aF2.0
aF4.0
aF3.0
aF3.0
aF3.0
aF1.0
aF5.0
aF7.0
aF4.0
aF8.0
aF1.0
aF4.0
aF5.0
aF5.0
aF6.0
aF3.0
aF3.0
aF9.0
aF5.0
aF5.0
aF3.0
aF4.0
aF10.0
aF7.0
aF2.0
aF5.0
aF7.0
aF5.0
aF10.0
aF3.0
aF5.0
aF4.0
aF4.0
aF7.0
aF5.0
aF3.0
aF3.0
aF1.0
aF1.0
aF3.0
aF4.0
aF4.0
aF3.0
aF6.0
aF2.0
aF1.0
aF6.0
aF2.0
aF4.0
aF4.0
aF2.0
aF0.0
aF4.0
aF2.0
aF2.0
aF3.0
aF3.0
aF4.0
aF1.0
aF2.0
aF2.0
aF4.0
aF0.0
aF2.0
aF0.0
aF0.0
aF3.0
aF0.0
aF2.0
aF2.0
aF1.0
aF2.0
aF0.0
aF4.0
aF5.0
aF2.0
aF2.0
aF4.0
aF2.0
aF4.0
aF1.0
aF4.0
aF1.0
aF0.0
aF3.0
aF1.0
aF2.0
aF1.0
aF2.0
aF0.0
aF2.0
aF2.0
aF1.0
aF1.0
aF2.0
aF2.0
aF1.0
aF0.0
aF0.0
aF1.0
aF0.0
aF1.0
aF1.0
aF1.0
aF2.0
aF1.0
aF4.0
aF0.0
aF2.0
aF3.0
aF2.0
aF1.0
aF3.0
aF2.0
aF1.0
aF2.0
aF3.0
aF1.0
aF3.0
aF1.0
aF6.0
aF0.0
aF3.0
aF1.0
aF0.0
aF1.0
aF5.0
aF4.0
aF2.0
aF4.0
aF4.0
aF2.0
aF4.0
aF0.0
aF0.0
aF1.0
aF1.0
aF0.0
aF8.0
aF4.0
aF1.0
aF1.0
aF1.0
aF1.0
aF0.0
aF1.0
aF2.0
aF1.0
aF0.0
aF3.0
aF0.0
aF2.0
aF1.0
aF1.0
aF2.0
aF2.0
aF2.0
aF1.0
aF1.0
aF2.0
aF1.0
aF1.0
aF4.0
aF2.0
aF2.0
aF5.0
aF3.0
aF3.0
aF2.0
aF0.0
aF3.0
aF1.0
aF3.0
aF4.0
aF3.0
aF6.0
aF2.0
aF4.0
aF1.0
aF2.0
aF6.0
aF1.0
aF1.0
aF5.0
aF5.0
aF3.0
aF3.0
aF3.0
aF4.0
aF2.0
aF1.0
aF5.0
aF5.0
aF3.0
aF3.0
aF5.0
aF4.0
aF10.0
aF3.0
aF6.0
aF6.0
aF2.0
aF3.0
aF2.0
aF6.0
aF3.0
aF3.0
aF4.0
aF5.0
aF2.0
aF4.0
aF6.0
aF6.0
aF8.0
aF3.0
aF2.0
aF3.0
aF3.0
aF4.0
aF7.0
aF2.0
aF3.0
aF5.0
aF2.0
aF6.0
aF6.0
aF5.0
aF3.0
aF8.0
aF1.0
aF4.0
aF6.0
aF3.0
aF4.0
aF7.0
aF2.0
aF5.0
aF5.0
aF4.0
aF5.0
aF4.0
aF3.0
aF6.0
aF5.0
aF8.0
aF4.0
aF3.0
aF4.0
aF2.0
aF6.0
aF5.0
aF3.0
aF4.0
aF1.0
aF3.0
aF4.0
aF3.0
aF4.0
aF9.0
aF1.0
aF6.0
aF4.0
aF3.0
aF3.0
aF4.0
aF3.0
aF4.0
aF4.0
aF2.0
aF2.0
aF2.0
aF2.0
aF5.0
aF2.0
aF6.0
aF3.0
aF6.0
aF2.0
aF5.0
aF3.0
aF3.0
aF2.0
aF3.0
aF4.0
aF5.0
aF3.0
aF1.0
aF3.0
aF5.0
aF6.0
aF4.0
aF4.0
aF3.0
aF4.0
aF1.0
aF5.0
aF7.0
aF2.0
aF2.0
aF2.0
aF1.0
aF7.0
aF4.0
aF3.0
aF4.0
aF4.0
aF2.0
aF8.0
aF2.0
aF9.0
aF4.0
aF3.0
aF0.0
aF3.0
aF5.0
aF2.0
aF3.0
aF2.0
aF4.0
aF4.0
aF5.0
aF3.0
aF1.0
aF6.0
aF4.0
aF4.0
aF4.0
aF4.0
aF3.0
aF1.0
aF3.0
aF6.0
aF5.0
aF4.0
aF5.0
aF2.0
aF5.0
aF5.0
aF1.0
aF13.0
aF1.0
aF6.0
aF4.0
aF5.0
aF6.0
aF4.0
aF2.0
aF3.0
aF4.0
aF2.0
aF4.0
aF1.0
aF3.0
aF0.0
aF3.0
aF9.0
aF6.0
aF4.0
aF5.0
aF5.0
aF4.0
aF4.0
aF9.0
aF4.0
aF3.0
aF5.0
aF8.0
aF3.0
aF12.0
aF6.0
aF5.0
aF2.0
aF7.0
aF7.0
aF5.0
aF6.0
aF6.0
aF4.0
aF8.0
aF6.0
aF1.0
aF5.0
aF3.0
aF4.0
aF9.0
aF6.0
aF4.0
aF5.0
aF5.0
aF3.0
aF3.0
aF6.0
aF8.0
aF3.0
aF1.0
aF5.0
aF9.0
aF6.0
aF3.0
aF6.0
aF5.0
aF9.0
aF5.0
aF2.0
aF5.0
aF2.0
aF4.0
aF5.0
aF4.0
aF5.0
aF3.0
aF2.0
aF5.0
aF5.0
aF5.0
aF2.0
aF8.0
aF3.0
aF2.0
aF5.0
aF5.0
aF5.0
aF6.0
aF5.0
aF6.0
aF3.0
aF2.0
aF5.0
aF12.0
aF1.0
aF6.0
aF2.0
aF5.0
aF5.0
aF2.0
aF5.0
aF4.0
aF6.0
aF7.0
aF2.0
aF5.0
aF1.0
aF5.0
aF4.0
aF7.0
aF6.0
aF1.0
aF2.0
aF6.0
aF7.0
aF3.0
aF9.0
aF6.0
aF5.0
aF4.0
aF17.0
aF6.0
aF9.0
aF5.0
aF5.0
aF6.0
aF3.0
aF10.0
aF7.0
aF11.0
aF5.0
aF6.0
aF8.0
aF7.0
aF8.0
aF7.0
aF6.0
aF6.0
aF1.0
aF8.0
aF9.0
aF10.0
aF8.0
aF2.0
aF4.0
aF8.0
aF3.0
aF9.0
aF8.0
aF2.0
aF6.0
aF6.0
aF9.0
aF6.0
aF7.0
aF8.0
aF4.0
aF7.0
aF6.0
aF4.0
aF6.0
aF5.0
aF7.0
aF3.0
aF2.0
aF7.0
aF6.0
aF3.0
aF5.0
aF4.0
aF4.0
aF8.0
aF2.0
aF5.0
aF7.0
aF2.0
aF4.0
aF2.0
aF2.0
aF6.0
aF5.0
aF4.0
aF6.0
aF0.0
aF3.0
aF6.0
aF8.0
aF5.0
aF3.0
aF0.0
aF3.0
aF4.0
aF3.0
aF3.0
aF3.0
aF6.0
aF5.0
aF5.0
aF4.0
aF3.0
aF5.0
aF4.0
aF6.0
aF2.0
aF7.0
aF5.0
aF8.0
aF6.0
aF9.0
aF13.0
aF7.0
aF2.0
aF0.0
aF4.0
aF4.0
aF5.0
aF2.0
aF8.0
aF6.0
aF3.0
aF3.0
aF8.0
aF7.0
aF2.0
aF2.0
aF4.0
aF4.0
aF1.0
aF5.0
aF4.0
aF5.0
aF9.0
aF6.0
aF7.0
aF2.0
aF4.0
aF3.0
aF5.0
aF4.0
aF9.0
aF4.0
aF5.0
aF10.0
aF8.0
aF6.0
aF6.0
aF9.0
aF3.0
aF12.0
aF12.0
aF1.0
aF5.0
aF4.0
aF8.0
aF7.0
aF2.0
aF8.0
aF5.0
aF3.0
aF6.0
aF4.0
aF11.0
aF9.0
aF9.0
aF11.0
aF6.0
aF6.0
aF2.0
aF6.0
aF7.0
aF7.0
aF3.0
aF5.0
aF1.0
aF7.0
aF5.0
aF7.0
aF9.0
aF10.0
aF10.0
aF11.0
aF6.0
aF7.0
aF3.0
aF5.0
aF3.0
aF4.0
aF15.0
aF10.0
aF4.0
aF2.0
aF7.0
aF4.0
aF3.0
aF8.0
aF6.0
aF9.0
aF4.0
aF5.0
aF8.0
aF4.0
aF3.0
aF6.0
aF9.0
aF17.0
aF6.0
aF12.0
aF10.0
aF8.0
aF9.0
aF4.0
aF9.0
aF3.0
aF11.0
aF9.0
aF12.0
aF6.0
aF4.0
aF12.0
aF1.0
aF8.0
aF7.0
aF3.0
aF3.0
aF6.0
aF7.0
aF3.0
aF7.0
aF10.0
aF5.0
aF7.0
aF16.0
aF9.0
aF4.0
aF9.0
aF10.0
aF2.0
aF5.0
aF4.0
aF5.0
aF8.0
aF7.0
aF6.0
aF9.0
aF7.0
aF7.0
aF8.0
aF9.0
aF5.0
aF7.0
aF3.0
aF3.0
aF6.0
aF6.0
aF6.0
aF6.0
aF3.0
aF11.0
aF5.0
aF4.0
aF6.0
aF3.0
aF6.0
aF5.0
aF4.0
aF5.0
aF4.0
aF7.0
aF2.0
aF1.0
aF11.0
aF11.0
aF5.0
aF7.0
aF6.0
aF7.0
aF9.0
aF6.0
aF6.0
aF6.0
aF6.0
aF9.0
aF9.0
aF11.0
aF8.0
aF8.0
aF6.0
aF3.0
aF8.0
aF9.0
aF6.0
aF8.0
aF8.0
aF8.0
aF8.0
aF12.0
aF7.0
aF5.0
aF8.0
aF5.0
aF3.0
aF3.0
aF10.0
aF14.0
aF15.0
aF7.0
aF8.0
aF11.0
aF2.0
aF6.0
aF6.0
aF5.0
aF6.0
aF9.0
aF6.0
aF6.0
aF6.0
aF9.0
aF8.0
aF4.0
aF5.0
aF6.0
aF3.0
aF4.0
aF3.0
aF5.0
aF4.0
aF6.0
aF4.0
aF6.0
aF5.0
aF5.0
aF8.0
aF1.0
aF5.0
aF3.0
aF2.0
aF7.0
aF6.0
aF0.0
aF7.0
aF6.0
aF5.0
aF3.0
aF3.0
aF2.0
aF4.0
aF4.0
aF3.0
aF6.0
aF3.0
aF3.0
aF3.0
aF3.0
aF2.0
aF1.0
aF3.0
aF3.0
aF3.0
aF2.0
aF4.0
aF0.0
aF5.0
aF3.0
aF2.0
aF3.0
aF6.0
aF0.0
aF3.0
aF2.0
aF3.0
aF3.0
aF1.0
aF3.0
aF2.0
aF5.0
aF6.0
aF4.0
aF7.0
aF4.0
aF5.0
aF10.0
aF3.0
aF3.0
aF0.0
aF4.0
aF5.0
aF2.0
aF7.0
aF4.0
aF4.0
aF3.0
aF4.0
aF5.0
aF3.0
aF7.0
aF4.0
aF5.0
aF4.0
aF4.0
aF3.0
aF6.0
aF6.0
aF0.0
aF8.0
aF4.0
aF8.0
aF0.0
aF6.0
aF11.0
aF7.0
aF8.0
aF5.0
aF4.0
aF9.0
aF2.0
aF5.0
aF12.0
aF9.0
aF7.0
aF5.0
aF7.0
aF3.0
aF7.0
aF5.0
aF5.0
aF7.0
aF5.0
aF3.0
aF10.0
aF10.0
aF7.0
aF10.0
aF7.0
aF10.0
aF6.0
aF10.0
aF2.0
aF6.0
aF4.0
aF7.0
aF10.0
aF8.0
aF11.0
aF4.0
aF5.0
aF7.0
aF11.0
aF4.0
aF9.0
aF7.0
aF20.0
aF7.0
aF6.0
aF4.0
aF5.0
aF4.0
aF9.0
aF3.0
aF4.0
aF6.0
aF4.0
aF5.0
aF7.0
aF5.0
aF6.0
aF6.0
aF5.0
aF7.0
aF7.0
aF11.0
aF7.0
aF4.0
aF13.0
aF5.0
aF7.0
aF7.0
aF4.0
aF3.0
aF5.0
aF8.0
aF4.0
aF6.0
aF6.0
aF6.0
aF8.0
aF7.0
aF5.0
aF7.0
aF6.0
aF8.0
aF5.0
aF5.0
aF5.0
aF7.0
aF9.0
aF7.0
aF8.0
aF2.0
aF9.0
aF5.0
aF7.0
aF8.0
aF6.0
aF6.0
aF7.0
aF3.0
aF4.0
aF7.0
aF6.0
aF7.0
aF6.0
aF9.0
aF8.0
aF3.0
aF6.0
aF8.0
aF5.0
aF4.0
aF3.0
aF7.0
aF2.0
aF5.0
aF7.0
aF6.0
aF11.0
aF6.0
aF6.0
aF6.0
aF9.0
aF8.0
aF5.0
aF4.0
aF3.0
aF4.0
aF6.0
aF5.0
aF6.0
aF5.0
aF7.0
aF7.0
aF6.0
aF6.0
aF6.0
aF6.0
aF5.0
aF8.0
aF6.0
aF8.0
aF9.0
aF9.0
aF6.0
aF6.0
aF6.0
aF11.0
aF3.0
aF6.0
aF1.0
aF7.0
aF6.0
aF9.0
aF8.0
aF5.0
aF12.0
aF7.0
aF6.0
aF8.0
aF8.0
aF7.0
aF4.0
aF6.0
aF5.0
aF2.0
aF0.0
aF3.0
aF4.0
aF4.0
aF5.0
aF6.0
aF4.0
aF4.0
aF6.0
aF6.0
aF8.0
aF6.0
aF3.0
aF7.0
aF6.0
aF3.0
aF4.0
aF7.0
aF5.0
aF8.0
aF10.0
aF5.0
aF6.0
aF7.0
aF8.0
aF7.0
aF7.0
aF6.0
aF5.0
aF9.0
aF4.0
aF2.0
aF5.0
aF7.0
aF3.0
aF3.0
aF5.0
aF0.0
aF4.0
aF5.0
aF3.0
aF3.0
aF3.0
aF1.0
aF3.0
aF4.0
aF3.0
aF3.0
aF3.0
aF9.0
aF4.0
aF7.0
aF7.0
aF7.0
aF7.0
aF18.0
aF9.0
aF8.0
aF12.0
aF7.0
aF6.0
aF7.0
aF8.0
aF3.0
aF7.0
aF10.0
aF5.0
aF6.0
aF7.0
aF7.0
aF5.0
aF6.0
aF5.0
aF6.0
aF4.0
aF6.0
aF3.0
aF7.0
aF5.0
aF4.0
aF5.0
aF0.0
aF3.0
aF2.0
aF3.0
aF2.0
aF2.0
aF2.0
aF3.0
aF3.0
aF3.0
aF3.0
aF2.0
aF2.0
aF3.0
aF2.0
aF3.0
aF7.0
aF7.0
aF4.0
aF2.0
aF6.0
aF5.0
aF5.0
aF6.0
aF8.0
aF1.0
aF4.0
aF6.0
aF9.0
aF3.0
aF5.0
aF5.0
aF4.0
aF8.0
aF3.0
aF8.0
aF3.0
aF5.0
aF7.0
aF2.0
aF6.0
aF6.0
aF4.0
aF11.0
aF2.0
aF10.0
aF4.0
aF9.0
aF7.0
aF8.0
aF8.0
aF4.0
aF6.0
aF7.0
aF6.0
aF6.0
aF10.0
aF6.0
aF10.0
aF9.0
aF3.0
aF5.0
aF13.0
aF9.0
aF4.0
aF8.0
aF7.0
aF10.0
aF5.0
aF3.0
aF9.0
aF4.0
aF15.0
aF5.0
aF8.0
aF12.0
aF7.0
aF9.0
aF12.0
aF7.0
aF13.0
aF6.0
aF8.0
aF7.0
aF5.0
aF15.0
aF13.0
aF4.0
aF13.0
aF9.0
aF5.0
aF18.0
aF4.0
aF7.0
aF9.0
aF9.0
aF5.0
aF3.0
aF5.0
aF5.0
aF10.0
aF5.0
aF13.0
aF8.0
aF4.0
aF3.0
aF12.0
aF7.0
aF6.0
aF7.0
aF6.0
aF5.0
aF10.0
aF3.0
aF9.0
aF5.0
aF10.0
aF6.0
aF7.0
aF11.0
aF5.0
aF9.0
aF5.0
aF2.0
aF5.0
aF5.0
aF3.0
aF3.0
aF4.0
aF2.0
aF4.0
aF2.0
aF2.0
aF4.0
aF1.0
aF4.0
aF2.0
aF6.0
aF8.0
aF5.0
aF4.0
aF4.0
aF7.0
aF2.0
aF11.0
aF8.0
aF6.0
aF3.0
aF6.0
aF2.0
aF5.0
aF7.0
aF1.0
aF5.0
aF3.0
aF6.0
aF6.0
aF5.0
aF8.0
aF3.0
aF8.0
aF4.0
aF7.0
aF2.0
aF10.0
aF3.0
aF8.0
aF3.0
aF5.0
aF5.0
aF6.0
aF5.0
aF4.0
aF3.0
aF3.0
aF4.0
aF5.0
aF6.0
aF3.0
aF5.0
aF11.0
aF4.0
aF12.0
aF7.0
aF11.0
aF13.0
aF8.0
aF7.0
aF11.0
aF4.0
aF10.0
aF6.0
aF6.0
aF8.0
aF3.0
aF8.0
aF8.0
aF3.0
aF6.0
aF8.0
aF10.0
aF6.0
aF6.0
aF11.0
aF4.0
aF8.0
aF9.0
aF6.0
aF6.0
aF8.0
aF7.0
aF13.0
aF5.0
aF8.0
aF4.0
aF5.0
aF7.0
aF7.0
aF4.0
aF8.0
aF7.0
aF6.0
aF8.0
aF9.0
aF7.0
aF7.0
aF13.0
aF8.0
aF6.0
aF8.0
aF9.0
aF3.0
aF6.0
aF7.0
aF6.0
aF5.0
aF3.0
aF6.0
aF9.0
aF7.0
aF4.0
aF14.0
aF6.0
aF6.0
aF4.0
aF11.0
aF6.0
aF9.0
aF6.0
aF6.0
aF11.0
aF9.0
aF6.0
aF6.0
aF6.0
aF6.0
aF3.0
aF6.0
aF10.0
aF6.0
aF7.0
aF7.0
aF8.0
aF5.0
aF4.0
aF6.0
aF6.0
aF6.0
aF5.0
aF6.0
aF7.0
aF8.0
aF9.0
aF4.0
aF12.0
aF4.0
aF8.0
aF11.0
aF4.0
aF1.0
aF7.0
aF6.0
aF6.0
aF5.0
aF5.0
aF2.0
aF4.0
aF6.0
aF8.0
aF6.0
aF8.0
aF1.0
aF5.0
aF5.0
aF5.0
aF4.0
aF6.0
aF6.0
aF5.0
aF17.0
aF9.0
aF4.0
aF6.0
aF6.0
aF7.0
aF7.0
aF4.0
aF9.0
aF5.0
aF5.0
aF3.0
aF5.0
aF4.0
aF4.0
aF5.0
aF6.0
aF8.0
aF7.0
aF7.0
aF8.0
aF11.0
aF6.0
aF5.0
aF6.0
aF5.0
aF3.0
aF6.0
aF5.0
aF7.0
aF5.0
aF10.0
aF11.0
aF5.0
aF6.0
aF8.0
aF11.0
aF8.0
aF6.0
aF3.0
aF7.0
aF11.0
aF7.0
aF9.0
aF5.0
aF9.0
aF13.0
aF4.0
aF6.0
aF11.0
aF10.0
aF8.0
aF13.0
aF5.0
aF10.0
aF10.0
aF11.0
aF7.0
aF9.0
aF7.0
aF9.0
aF7.0
aF7.0
aF5.0
aF6.0
aF13.0
aF8.0
aF9.0
aF11.0
aF8.0
aF6.0
aF4.0
aF8.0
aF4.0
aF8.0
aF14.0
aF8.0
aF8.0
aF7.0
aF6.0
aF6.0
aF5.0
aF12.0
aF9.0
aF9.0
aF8.0
aF3.0
aF6.0
aF6.0
aF5.0
aF3.0
aF6.0
aF6.0
aF3.0
aF1.0
aF3.0
aF6.0
aF5.0
aF10.0
aF4.0
aF3.0
aF4.0
aF6.0
aF5.0
aF7.0
aF7.0
aF5.0
aF4.0
aF4.0
aF3.0
aF7.0
aF5.0
aF2.0
aF2.0
aF4.0
aF8.0
aF4.0
aF5.0
aF5.0
aF5.0
aF1.0
aF3.0
aF5.0
aF3.0
aF5.0
aF3.0
aF2.0
aF7.0
aF5.0
aF4.0
aF6.0
aF8.0
aF4.0
aF6.0
aF5.0
aF3.0
aF6.0
aF6.0
aF5.0
aF3.0
aF5.0
aF4.0
aF4.0
aF6.0
aF1.0
aF4.0
aF3.0
aF3.0
aF5.0
aF1.0
aF3.0
aF1.0
aF3.0
aF5.0
aF4.0
aF3.0
aF8.0
aF6.0
aF6.0
aF9.0
aF5.0
aF9.0
aF1.0
aF15.0
aF11.0
aF5.0
aF4.0
aF6.0
aF0.0
aF4.0
aF3.0
aF7.0
aF4.0
aF1.0
aF4.0
aF7.0
aF4.0
aF4.0
aF2.0
aF3.0
aF9.0
aF7.0
aF5.0
aF6.0
aF6.0
aF9.0
aF6.0
aF4.0
aF1.0
aF2.0
aF9.0
aF4.0
aF9.0
aF9.0
aF17.0
aF12.0
aF7.0
aF7.0
aF9.0
aF5.0
aF6.0
aF7.0
aF4.0
aF6.0
aF5.0
aF12.0
aF6.0
aF8.0
aF8.0
aF6.0
aF8.0
aF6.0
aF5.0
aF5.0
aF10.0
aF9.0
aF5.0
aF8.0
aF6.0
aF3.0
aF11.0
aF6.0
aF7.0
aF7.0
aF6.0
aF10.0
aF4.0
aF5.0
aF7.0
aF9.0
aF11.0
aF8.0
aF10.0
aF9.0
aF5.0
aF7.0
aF7.0
aF6.0
aF2.0
aF4.0
aF8.0
aF12.0
aF7.0
aF8.0
aF6.0
aF6.0
aF6.0
aF10.0
aF10.0
aF7.0
aF4.0
aF5.0
aF6.0
aF6.0
aF10.0
aF4.0
aF7.0
aF10.0
aF9.0
aF6.0
aF4.0
aF11.0
aF4.0
aF10.0
aF9.0
aF5.0
aF7.0
aF12.0
aF9.0
aF10.0
aF7.0
aF5.0
aF5.0
aF5.0
aF4.0
aF5.0
aF3.0
aF6.0
aF2.0
aF2.0
aF6.0
aF2.0
aF7.0
aF3.0
aF12.0
aF6.0
aF4.0
aF7.0
aF4.0
aF5.0
aF6.0
aF5.0
aF5.0
aF9.0
aF6.0
aF2.0
aF6.0
aF7.0
aF7.0
aF4.0
aF11.0
aF6.0
aF11.0
aF7.0
aF6.0
aF5.0
aF3.0
aF6.0
aF5.0
aF3.0
aF7.0
aF5.0
aF7.0
aF7.0
aF4.0
aF5.0
aF4.0
aF4.0
aF9.0
aF9.0
aF5.0
aF4.0
aF6.0
aF6.0
aF3.0
aF9.0
aF12.0
aF4.0
aF8.0
aF12.0
aF4.0
aF8.0
aF7.0
aF4.0
aF7.0
aF5.0
aF5.0
aF2.0
aF10.0
aF3.0
aF5.0
aF9.0
aF5.0
aF4.0
aF6.0
aF6.0
aF16.0
aF5.0
aF10.0
aF2.0
aF19.0
aF3.0
aF4.0
aF9.0
aF6.0
aF10.0
aF6.0
aF6.0
aF9.0
aF10.0
aF9.0
aF9.0
aF5.0
aF6.0
aF6.0
aF5.0
aF7.0
aF5.0
aF5.0
aF10.0
aF8.0
aF6.0
aF4.0
aF7.0
aF8.0
aF5.0
aF10.0
aF6.0
aF5.0
aF8.0
aF8.0
aF7.0
aF7.0
aF7.0
aF11.0
aF6.0
aF9.0
aF7.0
aF6.0
aF16.0
aF6.0
aF7.0
aF7.0
aF7.0
aF6.0
aF7.0
aF5.0
aF6.0
aF6.0
aF7.0
aF6.0
aF5.0
aF6.0
aF7.0
aF8.0
aF6.0
aF6.0
aF7.0
aF6.0
aF7.0
aF7.0
aF8.0
aF6.0
aF7.0
aF6.0
aF5.0
aF6.0
aF10.0
aF8.0
aF8.0
aF8.0
aF7.0
aF5.0
aF7.0
aF7.0
aF7.0
aF3.0
aF8.0
aF7.0
aF15.0
aF12.0
aF10.0
aF7.0
aF11.0
aF7.0
aF6.0
aF10.0
aF19.0
aF6.0
aF6.0
aF9.0
aF7.0
aF11.0
aF7.0
aF10.0
aF6.0
aF2.0
aF6.0
aF14.0
aF15.0
aF10.0
aF2.0
aF7.0
aF7.0
aF16.0
aF4.0
aF7.0
aF7.0
aF6.0
aF8.0
aF5.0
aF4.0
aF17.0
aF7.0
aF8.0
aF11.0
aF7.0
aF7.0
aF9.0
aF6.0
aF7.0
aF6.0
aF5.0
aF9.0
aF6.0
aF12.0
aF9.0
aF5.0
aF7.0
aF6.0
aF7.0
aF4.0
aF5.0
aF7.0
aF7.0
aF7.0
aF4.0
aF9.0
aF3.0
aF8.0
aF9.0
aF9.0
aF9.0
aF4.0
aF9.0
aF8.0
aF6.0
aF4.0
aF9.0
aF7.0
aF6.0
aF6.0
aF6.0
aF4.0
aF4.0
aF7.0
aF7.0
aF10.0
aF6.0
aF6.0
aF4.0
aF5.0
aF6.0
aF6.0
aF6.0
aF13.0
aF8.0
aF5.0
aF5.0
aF5.0
aF7.0
aF7.0
aF5.0
aF6.0
aF9.0
aF2.0
aF7.0
aF5.0
aF7.0
aF7.0
aF7.0
aF8.0
aF6.0
aF3.0
aF5.0
aF4.0
aF5.0
aF6.0
aF9.0
aF6.0
aF7.0
aF3.0
aF5.0
aF6.0
aF5.0
aF6.0
aF4.0
aF6.0
aF10.0
aF5.0
aF6.0
aF4.0
aF12.0
aF4.0
aF7.0
aF12.0
aF5.0
aF6.0
aF5.0
aF5.0
aF4.0
aF2.0
aF5.0
aF4.0
aF6.0
aF9.0
aF5.0
aF6.0
aF4.0
aF4.0
aF8.0
aF5.0
aF7.0
aF10.0
aF6.0
aF3.0
aF7.0
aF8.0
aF3.0
aF2.0
aF9.0
aF10.0
aF4.0
aF10.0
aF5.0
aF6.0
aF5.0
aF3.0
aF4.0
aF11.0
aF5.0
aF9.0
aF7.0
aF7.0
aF5.0
aF8.0
aF5.0
aF9.0
aF6.0
aF7.0
aF7.0
aF8.0
aF5.0
aF9.0
aF7.0
aF8.0
aF3.0
aF3.0
aF5.0
aF12.0
aF10.0
aF5.0
aF6.0
aF4.0
aF6.0
aF5.0
aF11.0
aF6.0
aF10.0
aF9.0
aF3.0
aF9.0
aF5.0
aF7.0
aF8.0
aF6.0
aF4.0
aF5.0
aF11.0
aF10.0
aF8.0
aF8.0
aF3.0
aF4.0
aF6.0
aF7.0
aF8.0
aF4.0
aF8.0
aF8.0
aF9.0
aF7.0
aF9.0
aF6.0
aF7.0
aF5.0
aF5.0
aF8.0
aF4.0
aF10.0
aF6.0
aF6.0
aF4.0
aF2.0
aF2.0
aF7.0
aF4.0
aF6.0
aF5.0
aF4.0
aF4.0
aF7.0
aF5.0
aF6.0
aF9.0
aF5.0
aF4.0
aF3.0
aF10.0
aF6.0
aF12.0
aF6.0
aF10.0
aF10.0
aF7.0
aF6.0
aF7.0
aF4.0
aF10.0
aF13.0
aF8.0
aF6.0
aF7.0
aF5.0
aF4.0
aF5.0
aF3.0
aF3.0
aF4.0
aF9.0
aF7.0
aF6.0
aF7.0
aF7.0
aF6.0
aF5.0
aF8.0
aF7.0
aF9.0
aF17.0
aF4.0
aF5.0
aF8.0
aF6.0
aF6.0
aF13.0
aF9.0
aF3.0
aF6.0
aF10.0
aF7.0
aF4.0
aF5.0
aF4.0
aF9.0
aF3.0
aF3.0
aF3.0
aF7.0
aF8.0
aF6.0
aF8.0
aF6.0
aF8.0
aF7.0
aF3.0
aF9.0
aF10.0
aF8.0
aF10.0
aF7.0
aF8.0
aF10.0
aF9.0
aF5.0
aF6.0
aF7.0
aF7.0
aF7.0
aF11.0
aF7.0
aF12.0
aF6.0
aF6.0
aF8.0
aF7.0
aF9.0
aF7.0
aF11.0
aF6.0
aF5.0
aF12.0
aF4.0
aF1.0
aF7.0
aF8.0
aF6.0
aF5.0
aF7.0
aF10.0
aF3.0
aF7.0
aF5.0
aF14.0
aF8.0
aF7.0
aF8.0
aF12.0
aF10.0
aF10.0
aF10.0
aF6.0
aF8.0
aF7.0
aF6.0
aF11.0
aF4.0
aF6.0
aF10.0
aF5.0
aF9.0
aF8.0
aF11.0
aF4.0
aF8.0
aF13.0
aF4.0
aF8.0
aF4.0
aF7.0
aF7.0
aF8.0
aF2.0
aF3.0
aF9.0
aF5.0
aF10.0
aF7.0
aF12.0
aF6.0
aF7.0
aF6.0
aF14.0
aF8.0
aF11.0
aF7.0
aF8.0
aF6.0
aF5.0
aF5.0
aF14.0
aF7.0
aF6.0
aF8.0
aF4.0
aF7.0
aF7.0
aF17.0
aF9.0
aF15.0
aF6.0
aF11.0
aF6.0
aF5.0
aF7.0
aF4.0
aF4.0
aF6.0
aF9.0
aF15.0
aF2.0
aF6.0
aF8.0
aF7.0
aF14.0
aF5.0
aF8.0
aF15.0
aF6.0
aF4.0
aF8.0
aF11.0
aF6.0
aF6.0
aF4.0
aF1.0
aF7.0
aF6.0
aF3.0
aF3.0
aF4.0
aF1.0
aF1.0
aF4.0
aF6.0
aF2.0
aF3.0
aF5.0
aF6.0
aF1.0
aF4.0
aF7.0
aF4.0
aF6.0
aF5.0
aF7.0
aF7.0
aF9.0
aF4.0
aF15.0
aF5.0
aF3.0
aF7.0
aF7.0
aF10.0
aF3.0
aF8.0
aF7.0
aF5.0
aF8.0
aF7.0
aF9.0
aF8.0
aF3.0
aF7.0
aF6.0
aF6.0
aF6.0
aF3.0
aF4.0
aF7.0
aF7.0
aF3.0
aF5.0
aF3.0
aF7.0
aF8.0
aF9.0
aF4.0
aF9.0
aF3.0
aF4.0
aF6.0
aF12.0
aF8.0
aF13.0
aF4.0
aF8.0
aF3.0
aF3.0
aF8.0
aF4.0
aF5.0
aF9.0
aF11.0
aF3.0
aF5.0
aF8.0
aF7.0
aF6.0
aF8.0
aF9.0
aF6.0
aF5.0
aF5.0
aF3.0
aF5.0
aF5.0
aF5.0
aF5.0
aF9.0
aF5.0
aF4.0
aF7.0
aF5.0
aF4.0
aF14.0
aF7.0
aF8.0
aF8.0
aF8.0
aF6.0
aF12.0
aF11.0
aF13.0
aF6.0
aF7.0
aF6.0
aF3.0
aF16.0
aF4.0
aF4.0
aF5.0
aF4.0
aF7.0
aF8.0
aF6.0
aF4.0
aF4.0
aF5.0
aF7.0
aF5.0
aF5.0
aF10.0
aF6.0
aF9.0
aF3.0
aF10.0
aF7.0
aF4.0
aF5.0
aF6.0
aF7.0
aF9.0
aF16.0
aF7.0
aF15.0
aF8.0
aF4.0
aF19.0
aF6.0
aF7.0
aF11.0
aF5.0
aF6.0
aF13.0
aF14.0
aF9.0
aF13.0
aF8.0
aF11.0
aF3.0
aF7.0
aF9.0
aF10.0
aF12.0
aF10.0
aF13.0
aF9.0
aF9.0
aF6.0
aF7.0
aF6.0
aF13.0
aF3.0
aF7.0
aF11.0
aF11.0
aF17.0
aF8.0
aF7.0
aF6.0
aF5.0
aF8.0
aF10.0
aF12.0
aF10.0
aF8.0
aF4.0
aF10.0
aF3.0
aF7.0
aF8.0
aF2.0
aF7.0
aF5.0
aF6.0
aF7.0
aF4.0
aF4.0
aF14.0
aF6.0
aF6.0
aF7.0
aF9.0
aF7.0
aF7.0
aF7.0
aF3.0
aF4.0
aF2.0
aF5.0
aF7.0
aF6.0
aF11.0
aF8.0
aF3.0
aF11.0
aF4.0
aF7.0
aF3.0
aF6.0
aF2.0
aF3.0
aF8.0
aF3.0
aF3.0
aF5.0
aF3.0
aF8.0
aF2.0
aF4.0
aF9.0
aF5.0
aF7.0
aF3.0
aF5.0
aF3.0
aF3.0
aF2.0
aF3.0
aF7.0
aF5.0
aF7.0
aF6.0
aF6.0
aF18.0
aF11.0
aF4.0
aF7.0
aF7.0
aF8.0
aF9.0
aF8.0
aF7.0
aF2.0
aF9.0
aF5.0
aF11.0
aF7.0
aF8.0
aF4.0
aF5.0
aF7.0
aF4.0
aF5.0
aF5.0
aF7.0
aF5.0
aF3.0
aF6.0
aF8.0
aF4.0
aF7.0
aF11.0
aF5.0
aF2.0
aF5.0
aF3.0
aF9.0
aF8.0
aF8.0
aF3.0
aF7.0
aF10.0
aF4.0
aF9.0
aF7.0
aF9.0
aF5.0
aF4.0
aF3.0
aF4.0
aF8.0
aF5.0
aF8.0
aF5.0
aF5.0
aF5.0
aF9.0
aF6.0
aF5.0
aF7.0
aF3.0
aF7.0
aF3.0
aF6.0
aF7.0
aF6.0
aF9.0
aF4.0
aF7.0
aF6.0
aF8.0
aF8.0
aF7.0
aF7.0
aF8.0
aF12.0
aF6.0
aF6.0
aF3.0
aF5.0
aF5.0
aF7.0
aF7.0
aF10.0
aF14.0
aF3.0
aF7.0
aF13.0
aF10.0
aF6.0
aF4.0
aF3.0
aF8.0
aF3.0
aF6.0
aF2.0
aF7.0
aF5.0
aF2.0
aF7.0
aF11.0
aF9.0
aF4.0
aF11.0
aF5.0
aF4.0
aF4.0
aF4.0
aF9.0
aF9.0
aF7.0
aF10.0
aF6.0
aF6.0
aF11.0
aF17.0
aF7.0
aF7.0
aF8.0
aF10.0
aF10.0
aF7.0
aF7.0
aF7.0
aF6.0
aF7.0
aF11.0
aF6.0
aF5.0
aF6.0
aF11.0
aF11.0
aF3.0
aF7.0
aF4.0
aF10.0
aF6.0
aF8.0
aF7.0
aF7.0
aF5.0
aF6.0
aF11.0
aF7.0
aF4.0
aF2.0
aF6.0
aF8.0
aF1.0
aF6.0
aF3.0
aF8.0
aF7.0
aF12.0
aF12.0
aF12.0
aF8.0
aF2.0
aF8.0
aF3.0
aF11.0
aF2.0
aF4.0
aF4.0
aF5.0
aF3.0
aF1.0
aF7.0
aF3.0
aF3.0
aF6.0
aF8.0
aF2.0
aF4.0
aF5.0
aF5.0
aF5.0
aF5.0
aF5.0
aF7.0
aF5.0
aF8.0
aF4.0
aF6.0
aF7.0
aF6.0
aF2.0
aF5.0
aF3.0
aF3.0
aF5.0
aF4.0
aF5.0
aF2.0
aF3.0
aF3.0
aF3.0
aF3.0
aF4.0
aF2.0
aF4.0
aF8.0
aF3.0
aF4.0
aF2.0
aF7.0
aF4.0
aF4.0
aF5.0
aF2.0
aF3.0
aF4.0
aF6.0
aF1.0
aF3.0
aF4.0
aF0.0
aF7.0
aF5.0
aF9.0
aF3.0
aF5.0
aF4.0
aF3.0
aF1.0
aF1.0
aF3.0
aF3.0
aF2.0
aF3.0
aF3.0
aF3.0
aF5.0
aF3.0
aF5.0
aF2.0
aF6.0
aF2.0
aF4.0
aF6.0
aF2.0
aF5.0
aF7.0
aF7.0
aF6.0
aF9.0
aF13.0
aF5.0
aF2.0
aF1.0
aF9.0
aF6.0
aF4.0
aF6.0
aF1.0
aF1.0
aF1.0
aF7.0
aF6.0
aF5.0
aF8.0
aF4.0
aF10.0
aF6.0
aF5.0
aF6.0
aF12.0
aF4.0
aF5.0
aF6.0
aF6.0
aF6.0
aF9.0
aF3.0
aF5.0
aF6.0
aF6.0
aF11.0
aF4.0
aF5.0
aF6.0
aF7.0
aF10.0
aF5.0
aF8.0
aF5.0
aF5.0
aF18.0
aF17.0
aF6.0
aF21.0
aF9.0
aF6.0
aF12.0
aF8.0
aF9.0
aF9.0
aF7.0
aF12.0
aF8.0
aF6.0
aF8.0
aF10.0
aF12.0
aF1.0
aF9.0
aF7.0
aF2.0
aF2.0
aF9.0
aF8.0
aF4.0
aF7.0
aF10.0
aF2.0
aF4.0
aF5.0
aF5.0
aF3.0
aF11.0
aF9.0
aF6.0
aF5.0
aF9.0
aF12.0
aF8.0
aF7.0
aF3.0
aF6.0
aF3.0
aF5.0
aF10.0
aF3.0
aF4.0
aF7.0
aF6.0
aF7.0
aF2.0
aF4.0
aF6.0
aF10.0
aF3.0
aF6.0
aF7.0
aF10.0
aF5.0
aF6.0
aF6.0
aF4.0
aF2.0
aF3.0
aF3.0
aF1.0
aF4.0
aF4.0
aF5.0
aF9.0
aF7.0
aF5.0
aF1.0
aF5.0
aF4.0
aF2.0
aF6.0
aF5.0
aF1.0
aF3.0
aF1.0
aF6.0
aF8.0
aF1.0
aF5.0
aF8.0
aF5.0
aF0.0
aF7.0
aF1.0
aF5.0
aF3.0
aF1.0
aF4.0
aF3.0
aF3.0
aF3.0
aF4.0
aF6.0
aF5.0
aF4.0
aF3.0
aF6.0
aF3.0
aF6.0
aF3.0
aF4.0
aF5.0
aF4.0
aF5.0
aF4.0
aF2.0
aF6.0
aF6.0
aF5.0
aF7.0
aF2.0
aF3.0
aF2.0
aF7.0
aF5.0
aF6.0
aF0.0
aF5.0
aF2.0
aF3.0
aF7.0
aF4.0
aF8.0
aF7.0
aF5.0
aF8.0
aF10.0
aF2.0
aF17.0
aF8.0
aF9.0
aF4.0
aF4.0
aF9.0
aF9.0
aF2.0
aF6.0
aF6.0
aF8.0
aF7.0
aF10.0
aF12.0
aF1.0
aF5.0
aF10.0
aF7.0
aF7.0
aF6.0
aF10.0
aF2.0
aF8.0
aF5.0
aF9.0
aF10.0
aF13.0
aF11.0
aF11.0
aF8.0
aF24.0
aF5.0
aF9.0
aF8.0
aF5.0
aF8.0
aF7.0
aF8.0
aF4.0
aF4.0
aF7.0
aF5.0
aF7.0
aF6.0
aF3.0
aF6.0
aF1.0
aF3.0
aF1.0
aF3.0
aF10.0
aF3.0
aF5.0
aF6.0
aF9.0
aF6.0
aF4.0
aF5.0
aF1.0
aF4.0
aF4.0
aF6.0
aF6.0
aF5.0
aF9.0
aF8.0
aF5.0
aF5.0
aF7.0
aF5.0
aF7.0
aF6.0
aF6.0
aF11.0
aF4.0
aF5.0
aF4.0
aF3.0
aF2.0
aF6.0
aF4.0
aF3.0
aF3.0
aF1.0
aF3.0
aF4.0
aF3.0
aF8.0
aF4.0
aF0.0
aF1.0
aF2.0
aF3.0
aF0.0
aF3.0
aF4.0
aF2.0
aF9.0
aF6.0
aF3.0
aF2.0
aF3.0
aF4.0
aF4.0
aF3.0
aF3.0
aF2.0
aF5.0
aF3.0
aF3.0
aF4.0
aF1.0
aF6.0
aF4.0
aF5.0
aF11.0
aF3.0
aF7.0
aF4.0
aF4.0
aF5.0
aF7.0
aF4.0
aF6.0
aF7.0
aF3.0
aF5.0
aF3.0
aF10.0
aF7.0
aF14.0
aF5.0
aF4.0
aF3.0
aF6.0
aF3.0
aF5.0
aF5.0
aF6.0
aF3.0
aF2.0
aF5.0
aF4.0
aF2.0
aF3.0
aF6.0
aF3.0
aF6.0
aF4.0
aF1.0
aF3.0
aF2.0
aF8.0
aF5.0
aF6.0
aF2.0
aF1.0
aF5.0
aF3.0
aF5.0
aF3.0
aF5.0
aF3.0
aF1.0
aF3.0
aF8.0
aF6.0
aF8.0
aF9.0
aF8.0
aF9.0
aF11.0
aF8.0
aF3.0
aF11.0
aF8.0
aF8.0
aF8.0
aF7.0
aF3.0
aF7.0
aF5.0
aF10.0
aF9.0
aF1.0
aF9.0
aF7.0
aF3.0
aF4.0
aF10.0
aF10.0
aF5.0
aF7.0
aF5.0
aF7.0
aF8.0
aF3.0
aF19.0
aF18.0
aF12.0
aF3.0
aF9.0
aF1.0
aF8.0
aF6.0
aF4.0
aF14.0
aF7.0
aF5.0
aF10.0
aF7.0
aF6.0
aF7.0
aF9.0
aF6.0
aF7.0
aF5.0
aF5.0
aF11.0
aF12.0
aF9.0
aF6.0
aF7.0
aF11.0
aF13.0
aF8.0
aF16.0
aF9.0
aF11.0
aF6.0
aF4.0
aF14.0
aF11.0
aF6.0
aF8.0
aF9.0
aF13.0
aF6.0
aF14.0
aF8.0
aF6.0
aF9.0
aF13.0
aF6.0
aF10.0
aF1.0
aF8.0
aF7.0
aF9.0
aF13.0
aF14.0
aF10.0
aF14.0
aF12.0
aF8.0
aF11.0
aF12.0
aF8.0
aF6.0
aF9.0
aF15.0
aF4.0
aF9.0
aF8.0
aF10.0
aF9.0
aF7.0
aF10.0
aF7.0
aF9.0
aF7.0
aF8.0
aF6.0
aF4.0
aF6.0
aF3.0
aF14.0
aF10.0
aF7.0
aF11.0
aF6.0
aF9.0
aF5.0
aF10.0
aF9.0
aF7.0
aF11.0
aF8.0
aF5.0
aF7.0
aF7.0
aF2.0
aF5.0
aF7.0
aF11.0
aF10.0
aF8.0
aF5.0
aF6.0
aF4.0
aF7.0
aF10.0
aF4.0
aF9.0
aF4.0
aF6.0
aF7.0
aF4.0
aF8.0
aF7.0
aF10.0
aF6.0
aF2.0
aF7.0
aF4.0
aF9.0
aF4.0
aF5.0
aF2.0
aF3.0
aF9.0
aF6.0
aF3.0
aF5.0
aF5.0
aF9.0
aF5.0
aF5.0
aF6.0
aF4.0
aF7.0
aF5.0
aF2.0
aF5.0
aF9.0
aF2.0
aF7.0
aF1.0
aF2.0
aF6.0
aF4.0
aF2.0
aF2.0
aF5.0
aF5.0
aF6.0
aF8.0
aF2.0
aF4.0
aF9.0
aF9.0
aF4.0
aF2.0
aF3.0
aF6.0
aF6.0
aF5.0
aF2.0
aF3.0
aF6.0
aF4.0
aF3.0
aF9.0
aF4.0
aF10.0
aF4.0
aF6.0
aF6.0
aF6.0
aF12.0
aF5.0
aF6.0
aF6.0
aF10.0
aF4.0
aF5.0
aF3.0
aF4.0
aF3.0
aF1.0
aF5.0
aF1.0
aF1.0
aF4.0
aF6.0
aF3.0
aF3.0
aF3.0
aF0.0
aF7.0
aF7.0
aF7.0
aF9.0
aF9.0
aF7.0
aF7.0
aF6.0
aF4.0
aF8.0
aF10.0
aF13.0
aF7.0
aF13.0
aF8.0
aF6.0
aF11.0
aF11.0
aF9.0
aF13.0
aF3.0
aF9.0
aF8.0
aF4.0
aF6.0
aF2.0
aF13.0
aF11.0
aF6.0
aF7.0
aF6.0
aF10.0
aF11.0
aF12.0
aF10.0
aF9.0
aF7.0
aF5.0
aF13.0
aF8.0
aF10.0
aF10.0
aF7.0
aF1.0
aF9.0
aF9.0
aF8.0
aF10.0
aF12.0
aF9.0
aF8.0
aF8.0
aF6.0
aF12.0
aF6.0
aF11.0
aF7.0
aF7.0
aF10.0
aF9.0
aF12.0
aF9.0
aF7.0
aF9.0
aF5.0
aF9.0
aF9.0
aF8.0
aF17.0
aF3.0
aF9.0
aF13.0
aF10.0
aF12.0
aF10.0
aF11.0
aF8.0
aF10.0
aF16.0
aF8.0
aF9.0
aF9.0
aF4.0
aF10.0
aF10.0
aF3.0
aF8.0
aF14.0
aF13.0
aF5.0
aF5.0
aF7.0
aF9.0
aF9.0
aF10.0
aF9.0
aF8.0
aF10.0
aF3.0
aF13.0
aF7.0
aF8.0
aF13.0
aF12.0
aF11.0
aF12.0
aF8.0
aF5.0
aF5.0
aF2.0
aF2.0
aF3.0
aF4.0
aF3.0
aF3.0
aF10.0
aF4.0
aF4.0
aF3.0
aF3.0
aF1.0
aF5.0
aF3.0
aF3.0
aF5.0
aF3.0
aF3.0
aF6.0
aF4.0
aF3.0
aF2.0
aF3.0
aF4.0
aF3.0
aF3.0
aF3.0
aF3.0
aF3.0
aF3.0
aF2.0
aF3.0
aF3.0
aF5.0
aF4.0
aF6.0
aF5.0
aF2.0
aF0.0
aF5.0
aF7.0
aF6.0
aF9.0
aF3.0
aF3.0
aF5.0
aF2.0
aF5.0
aF7.0
aF4.0
aF7.0
aF3.0
aF3.0
aF5.0
aF4.0
aF3.0
aF3.0
aF3.0
aF9.0
aF4.0
aF3.0
aF2.0
aF3.0
aF6.0
aF3.0
aF4.0
aF1.0
aF3.0
aF3.0
aF2.0
aF3.0
aF4.0
aF2.0
aF3.0
aF3.0
aF6.0
aF3.0
aF3.0
aF1.0
aF6.0
aF3.0
aF2.0
aF4.0
aF3.0
aF7.0
aF12.0
aF2.0
aF5.0
aF4.0
aF3.0
aF5.0
aF4.0
aF6.0
aF4.0
aF3.0
aF4.0
aF5.0
aF5.0
aF5.0
aF3.0
aF2.0
aF4.0
aF7.0
aF3.0
aF4.0
aF7.0
aF6.0
aF7.0
aF5.0
aF4.0
aF4.0
aF3.0
aF4.0
aF4.0
aF6.0
aF6.0
aF3.0
aF2.0
aF2.0
aF5.0
aF5.0
aF4.0
aF2.0
aF3.0
aF3.0
aF5.0
aF7.0
aF7.0
aF5.0
aF3.0
aF7.0
aF8.0
aF5.0
aF4.0
aF11.0
aF5.0
aF5.0
aF7.0
aF2.0
aF6.0
aF9.0
aF2.0
aF9.0
aF6.0
aF6.0
aF6.0
aF4.0
aF7.0
aF2.0
aF4.0
aF3.0
aF1.0
aF4.0
aF2.0
aF1.0
aF8.0
aF7.0
aF8.0
aF9.0
aF10.0
aF8.0
aF7.0
aF3.0
aF10.0
aF3.0
aF4.0
aF5.0
aF10.0
aF12.0
aF9.0
aF16.0
aF6.0
aF8.0
aF8.0
aF5.0
aF5.0
aF6.0
aF6.0
aF4.0
aF2.0
aF3.0
aF3.0
aF6.0
aF7.0
aF8.0
aF7.0
aF8.0
aF5.0
aF9.0
aF12.0
aF12.0
aF11.0
aF5.0
aF6.0
aF6.0
aF4.0
aF6.0
aF4.0
aF10.0
aF11.0
aF12.0
aF6.0
aF9.0
aF7.0
aF4.0
aF9.0
aF5.0
aF6.0
aF18.0
aF11.0
aF5.0
aF7.0
aF6.0
aF6.0
aF5.0
aF4.0
aF8.0
aF8.0
aF8.0
aF12.0
aF12.0
aF17.0
aF8.0
aF7.0
aF6.0
aF8.0
aF11.0
aF7.0
aF6.0
aF9.0
aF10.0
aF6.0
aF13.0
aF9.0
aF6.0
aF10.0
aF11.0
aF9.0
aF7.0
aF7.0
aF8.0
aF8.0
aF15.0
aF4.0
aF5.0
aF11.0
aF10.0
aF8.0
aF6.0
aF1.0
aF8.0
aF4.0
aF11.0
aF9.0
aF7.0
aF3.0
aF6.0
aF10.0
aF5.0
aF9.0
aF7.0
aF7.0
aF9.0
aF9.0
aF8.0
aF5.0
aF12.0
aF10.0
aF12.0
aF7.0
aF6.0
aF7.0
aF7.0
aF7.0
aF10.0
aF9.0
aF10.0
aF3.0
aF10.0
aF10.0
aF6.0
aF11.0
aF14.0
aF10.0
aF8.0
aF6.0
aF2.0
aF14.0
aF11.0
aF8.0
aF7.0
aF7.0
aF4.0
aF17.0
aF2.0
aF10.0
aF5.0
aF10.0
aF5.0
aF6.0
aF5.0
aF13.0
aF12.0
aF4.0
aF10.0
aF8.0
aF7.0
aF5.0
aF7.0
aF13.0
aF7.0
aF7.0
aF7.0
aF8.0
aF6.0
aF14.0
aF7.0
aF8.0
aF4.0
aF7.0
aF5.0
aF9.0
aF8.0
aF8.0
aF8.0
aF11.0
aF9.0
aF14.0
aF11.0
aF7.0
aF11.0
aF10.0
aF6.0
aF27.0
aF9.0
aF7.0
aF2.0
aF4.0
aF13.0
aF14.0
aF9.0
aF5.0
aF12.0
aF10.0
aF8.0
aF4.0
aF7.0
aF9.0
aF18.0
aF8.0
aF8.0
aF7.0
aF13.0
aF11.0
aF10.0
aF6.0
aF6.0
aF12.0
aF16.0
aF7.0
aF8.0
aF12.0
aF3.0
aF9.0
aF4.0
aF5.0
aF6.0
aF11.0
aF8.0
aF6.0
aF10.0
aF3.0
aF8.0
aF14.0
aF5.0
aF5.0
aF8.0
aF4.0
aF5.0
aF4.0
aF6.0
aF5.0
aF4.0
aF7.0
aF8.0
aF10.0
aF5.0
aF5.0
aF4.0
aF4.0
aF4.0
aF3.0
aF3.0
aF6.0
aF6.0
aF7.0
aF7.0
aF10.0
aF5.0
aF8.0
aF8.0
aF7.0
aF8.0
aF6.0
aF5.0
aF10.0
aF8.0
aF8.0
aF5.0
aF10.0
aF3.0
aF5.0
aF11.0
aF3.0
aF9.0
aF7.0
aF8.0
aF8.0
aF5.0
aF5.0
aF0.0
aF5.0
aF9.0
aF5.0
aF7.0
aF14.0
aF7.0
aF8.0
aF8.0
aF6.0
aF8.0
aF5.0
aF8.0
aF7.0
aF6.0
aF19.0
aF7.0
aF8.0
aF8.0
aF8.0
aF10.0
aF6.0
aF8.0
aF5.0
aF7.0
aF4.0
aF5.0
aF15.0
aF7.0
aF10.0
aF7.0
aF5.0
aF8.0
aF9.0
aF4.0
aF5.0
aF9.0
aF9.0
aF9.0
aF12.0
aF5.0
aF8.0
aF9.0
aF6.0
aF6.0
aF8.0
aF9.0
aF13.0
aF13.0
aF15.0
aF10.0
aF12.0
aF11.0
aF10.0
aF10.0
aF7.0
aF4.0
aF11.0
aF6.0
aF13.0
aF9.0
aF15.0
aF13.0
aF8.0
aF6.0
aF4.0
aF13.0
aF8.0
aF3.0
aF6.0
aF1.0
aF9.0
aF7.0
aF4.0
aF15.0
aF8.0
aF9.0
aF8.0
aF11.0
aF10.0
aF9.0
aF8.0
aF10.0
aF10.0
aF7.0
aF6.0
aF8.0
aF16.0
aF10.0
aF8.0
aF7.0
aF3.0
aF8.0
aF12.0
aF11.0
aF3.0
aF14.0
aF9.0
aF7.0
aF8.0
aF9.0
aF6.0
aF9.0
aF4.0
aF10.0
aF7.0
aF9.0
aF6.0
aF6.0
aF7.0
aF9.0
aF10.0
aF4.0
aF7.0
aF7.0
aF7.0
aF8.0
aF12.0
aF10.0
aF8.0
aF4.0
aF5.0
aF4.0
aF8.0
aF8.0
aF5.0
aF15.0
aF11.0
aF3.0
aF9.0
aF6.0
aF5.0
aF6.0
aF6.0
aF3.0
aF5.0
aF6.0
aF6.0
aF4.0
aF5.0
aF8.0
aF5.0
aF3.0
aF4.0
aF6.0
aF5.0
aF6.0
aF2.0
aF6.0
aF3.0
aF9.0
aF16.0
aF10.0
aF6.0
aF5.0
aF3.0
aF8.0
aF6.0
aF5.0
aF6.0
aF4.0
aF8.0
aF3.0
aF7.0
aF5.0
aF5.0
aF4.0
aF6.0
aF4.0
aF7.0
aF6.0
aF7.0
aF7.0
aF10.0
aF5.0
aF2.0
aF7.0
aF6.0
aF11.0
aF7.0
aF9.0
aF7.0
aF5.0
aF2.0
aF6.0
aF4.0
aF10.0
aF5.0
aF9.0
aF10.0
aF6.0
aF3.0
aF7.0
aF6.0
aF7.0
aF5.0
aF6.0
aF10.0
aF4.0
aF7.0
aF8.0
aF15.0
aF10.0
aF6.0
aF5.0
aF7.0
aF7.0
aF7.0
aF7.0
aF9.0
aF4.0
aF4.0
aF4.0
aF5.0
aF6.0
aF8.0
aF7.0
aF7.0
aF7.0
aF7.0
aF7.0
aF8.0
aF5.0
aF4.0
aF8.0
aF10.0
aF14.0
aF8.0
aF7.0
aF5.0
aF4.0
aF4.0
aF7.0
aF12.0
aF5.0
aF11.0
aF8.0
aF2.0
aF10.0
aF7.0
aF13.0
aF6.0
aF11.0
aF4.0
aF8.0
aF18.0
aF11.0
aF6.0
aF14.0
aF13.0
aF5.0
aF10.0
aF7.0
aF9.0
aF8.0
aF9.0
aF5.0
aF15.0
aF13.0
aF9.0
aF6.0
aF8.0
aF7.0
aF7.0
aF8.0
aF12.0
aF17.0
aF6.0
aF15.0
aF10.0
aF8.0
aF8.0
aF6.0
aF6.0
aF12.0
aF10.0
aF10.0
aF10.0
aF14.0
aF8.0
aF10.0
aF10.0
aF9.0
aF6.0
aF7.0
aF16.0
aF4.0
aF9.0
aF22.0
aF9.0
aF6.0
aF11.0
aF10.0
aF5.0
aF16.0
aF4.0
aF10.0
aF5.0
aF4.0
aF11.0
aF9.0
aF6.0
aF17.0
aF9.0
aF4.0
aF7.0
aF8.0
aF5.0
aF12.0
aF7.0
aF7.0
aF6.0
aF6.0
aF4.0
aF7.0
aF9.0
aF10.0
aF10.0
aF9.0
aF9.0
aF5.0
aF8.0
aF7.0
aF6.0
aF8.0
aF5.0
aF5.0
aF10.0
aF6.0
aF10.0
aF11.0
aF10.0
aF3.0
aF4.0
aF8.0
aF8.0
aF10.0
aF11.0
aF7.0
aF6.0
aF14.0
aF10.0
aF10.0
aF8.0
aF11.0
aF11.0
aF13.0
aF13.0
aF8.0
aF13.0
aF19.0
aF10.0
aF9.0
aF10.0
aF9.0
aF7.0
aF10.0
aF8.0
aF9.0
aF13.0
aF7.0
aF14.0
aF11.0
aF11.0
aF8.0
aF8.0
aF8.0
aF8.0
aF13.0
aF4.0
aF15.0
aF12.0
aF10.0
aF10.0
aF8.0
aF9.0
aF10.0
aF11.0
aF10.0
aF11.0
aF5.0
aF9.0
aF8.0
aF17.0
aF12.0
aF6.0
aF9.0
aF11.0
aF9.0
aF4.0
aF8.0
aF8.0
aF8.0
aF8.0
aF3.0
aF12.0
aF4.0
aF6.0
aF6.0
aF7.0
aF20.0
aF4.0
aF15.0
aF10.0
aF4.0
aF9.0
aF3.0
aF6.0
aF3.0
aF4.0
aF3.0
aF9.0
aF3.0
aF6.0
aF2.0
aF3.0
aF8.0
aF8.0
aF10.0
aF9.0
aF9.0
aF4.0
aF6.0
aF6.0
aF5.0
aF7.0
aF7.0
aF6.0
aF5.0
aF3.0
aF9.0
aF4.0
aF6.0
aF5.0
aF8.0
aF4.0
aF5.0
aF7.0
aF7.0
aF7.0
aF4.0
aF6.0
aF15.0
aF5.0
aF5.0
aF8.0
aF10.0
aF22.0
aF3.0
aF11.0
aF9.0
aF7.0
aF6.0
aF5.0
aF10.0
aF2.0
aF6.0
aF4.0
aF2.0
aF4.0
aF6.0
aF2.0
aF6.0
aF1.0
aF1.0
aF4.0
aF1.0
aF3.0
aF3.0
aF1.0
aF5.0
aF2.0
aF4.0
aF2.0
aF3.0
aF3.0
aF3.0
aF3.0
aF6.0
aF5.0
aF9.0
aF5.0
aF2.0
aF6.0
aF4.0
aF5.0
aF10.0
aF6.0
aF8.0
aF10.0
aF11.0
aF11.0
aF12.0
aF14.0
aF12.0
aF7.0
aF8.0
aF5.0
aF3.0
aF7.0
aF7.0
aF8.0
aF11.0
aF9.0
aF5.0
aF6.0
aF14.0
aF4.0
aF9.0
aF8.0
aF6.0
aF9.0
aF9.0
aF12.0
aF7.0
aF7.0
aF7.0
aF6.0
aF6.0
aF7.0
aF7.0
aF11.0
aF10.0
aF7.0
aF6.0
aF9.0
aF10.0
aF8.0
aF12.0
aF12.0
aF12.0
aF12.0
aF12.0
aF11.0
aF5.0
aF9.0
aF12.0
aF12.0
aF10.0
aF9.0
aF5.0
aF8.0
aF9.0
aF14.0
aF18.0
aF6.0
aF8.0
aF7.0
aF15.0
aF13.0
aF9.0
aF7.0
aF12.0
aF9.0
aF13.0
aF14.0
aF12.0
aF10.0
aF8.0
aF8.0
aF11.0
aF10.0
aF11.0
aF9.0
aF14.0
aF10.0
aF6.0
aF9.0
aF8.0
aF6.0
aF8.0
aF10.0
aF12.0
aF10.0
aF9.0
aF14.0
aF11.0
aF11.0
aF16.0
aF6.0
aF12.0
aF12.0
aF6.0
aF5.0
aF15.0
aF14.0
aF18.0
aF6.0
aF6.0
aF7.0
aF18.0
aF12.0
aF10.0
aF9.0
aF11.0
aF5.0
aF9.0
aF8.0
aF17.0
aF12.0
aF8.0
aF4.0
aF8.0
aF6.0
aF11.0
aF6.0
aF8.0
aF3.0
aF10.0
aF16.0
aF11.0
aF8.0
aF4.0
aF8.0
aF9.0
aF12.0
aF8.0
aF10.0
aF10.0
aF8.0
aF7.0
aF8.0
aF7.0
aF12.0
aF8.0
aF9.0
aF8.0
aF11.0
aF15.0
aF8.0
aF5.0
aF23.0
aF23.0
aF5.0
aF4.0
aF8.0
aF11.0
aF6.0
aF3.0
aF8.0
aF11.0
aF9.0
aF18.0
aF17.0
aF9.0
aF8.0
aF8.0
aF6.0
aF9.0
aF14.0
aF12.0
aF4.0
aF20.0
aF11.0
aF13.0
aF7.0
aF14.0
aF12.0
aF10.0
aF15.0
aF10.0
aF4.0
aF11.0
aF13.0
aF11.0
aF12.0
aF9.0
aF16.0
aF6.0
aF10.0
aF4.0
aF12.0
aF7.0
aF23.0
aF9.0
aF7.0
aF21.0
aF14.0
aF10.0
aF9.0
aF15.0
aF15.0
aF7.0
aF6.0
aF9.0
aF9.0
aF5.0
aF5.0
aF4.0
aF13.0
aF8.0
aF11.0
aF18.0
aF4.0
aF7.0
aF13.0
aF10.0
aF8.0
aF15.0
aF12.0
aF9.0
aF4.0
aF24.0
aF5.0
aF6.0
aF10.0
aF12.0
aF7.0
aF7.0
aF6.0
aF8.0
aF6.0
aF7.0
aF9.0
aF9.0
aF13.0
aF6.0
aF9.0
aF9.0
aF8.0
aF9.0
aF10.0
aF7.0
aF10.0
aF9.0
aF5.0
aF8.0
aF5.0
aF8.0
aF12.0
aF5.0
aF3.0
aF8.0
aF8.0
aF12.0
aF6.0
aF11.0
aF9.0
aF12.0
aF10.0
aF13.0
aF10.0
aF8.0
aF7.0
aF11.0
aF12.0
aF9.0
aF9.0
aF8.0
aF9.0
aF12.0
aF4.0
aF8.0
aF11.0
aF11.0
aF8.0
aF13.0
aF10.0
aF12.0
aF12.0
aF9.0
aF20.0
aF10.0
aF8.0
aF7.0
aF8.0
aF7.0
aF4.0
aF12.0
aF6.0
aF4.0
aF11.0
aF7.0
aF5.0
aF9.0
aF10.0
aF9.0
aF10.0
aF10.0
aF10.0
aF15.0
aF12.0
aF10.0
aF14.0
aF15.0
aF15.0
aF9.0
aF11.0
aF12.0
aF7.0
aF10.0
aF4.0
aF12.0
aF11.0
aF9.0
aF9.0
aF9.0
aF10.0
aF12.0
aF12.0
aF5.0
aF5.0
aF15.0
aF6.0
aF16.0
aF10.0
aF8.0
aF8.0
aF10.0
aF10.0
aF13.0
aF12.0
aF10.0
aF13.0
aF5.0
aF10.0
aF11.0
aF9.0
aF6.0
aF9.0
aF16.0
aF8.0
aF7.0
aF12.0
aF17.0
aF8.0
aF10.0
aF10.0
aF10.0
aF9.0
aF8.0
aF12.0
aF10.0
aF9.0
aF4.0
aF11.0
aF9.0
aF10.0
aF8.0
aF8.0
aF20.0
aF5.0
aF13.0
aF10.0
aF9.0
aF8.0
aF14.0
aF10.0
aF12.0
aF7.0
aF8.0
aF13.0
aF12.0
aF18.0
aF7.0
aF13.0
aF6.0
aF10.0
aF4.0
aF7.0
aF6.0
aF9.0
aF14.0
aF6.0
aF9.0
aF6.0
aF10.0
aF9.0
aF7.0
aF6.0
aF10.0
aF5.0
aF6.0
aF8.0
aF9.0
aF10.0
aF4.0
aF9.0
aF8.0
aF4.0
aF9.0
aF7.0
aF8.0
aF8.0
aF9.0
aF8.0
aF10.0
aF8.0
aF7.0
aF10.0
aF11.0
aF7.0
aF11.0
aF9.0
aF10.0
aF10.0
aF10.0
aF6.0
aF7.0
aF5.0
aF9.0
aF6.0
aF4.0
aF7.0
aF8.0
aF3.0
aF4.0
aF4.0
aF8.0
aF6.0
aF9.0
aF4.0
aF6.0
aF12.0
aF8.0
aF4.0
aF10.0
aF9.0
aF10.0
aF4.0
aF6.0
aF4.0
aF7.0
aF7.0
aF9.0
aF4.0
aF10.0
aF5.0
aF12.0
aF10.0
aF6.0
aF6.0
aF12.0
aF10.0
aF11.0
aF12.0
aF14.0
aF9.0
aF5.0
aF13.0
aF13.0
aF4.0
aF11.0
aF2.0
aF10.0
aF9.0
aF7.0
aF8.0
aF9.0
aF7.0
aF6.0
aF6.0
aF9.0
aF7.0
aF9.0
aF6.0
aF12.0
aF10.0
aF6.0
aF9.0
aF6.0
aF15.0
aF14.0
aF9.0
aF5.0
aF12.0
aF8.0
aF13.0
aF3.0
aF11.0
aF13.0
aF11.0
aF13.0
aF7.0
aF6.0
aF3.0
aF6.0
aF11.0
aF13.0
aF8.0
aF12.0
aF9.0
aF13.0
aF7.0
aF11.0
aF20.0
aF6.0
aF13.0
aF17.0
aF7.0
aF11.0
aF6.0
aF9.0
aF7.0
aF15.0
aF13.0
aF8.0
aF8.0
aF8.0
aF4.0
aF9.0
aF12.0
aF9.0
aF11.0
aF16.0
aF9.0
aF16.0
aF8.0
aF12.0
aF9.0
aF8.0
aF12.0
aF12.0
aF7.0
aF16.0
aF11.0
aF12.0
aF16.0
aF14.0
aF9.0
aF9.0
aF13.0
aF13.0
aF9.0
aF7.0
aF11.0
aF12.0
aF3.0
aF11.0
aF10.0
aF8.0
aF3.0
aF9.0
aF13.0
aF18.0
aF3.0
aF11.0
aF5.0
aF14.0
aF17.0
aF8.0
aF11.0
aF7.0
aF14.0
aF14.0
aF9.0
aF6.0
aF4.0
aF11.0
aF7.0
aF6.0
aF9.0
aF9.0
aF13.0
aF12.0
aF13.0
aF7.0
aF10.0
aF15.0
aF12.0
aF6.0
aF5.0
aF9.0
aF15.0
aF7.0
aF9.0
aF7.0
aF8.0
aF6.0
aF9.0
aF12.0
aF12.0
aF8.0
aF6.0
aF16.0
aF11.0
aF5.0
aF13.0
aF8.0
aF8.0
aF9.0
aF6.0
aF8.0
aF15.0
aF6.0
aF5.0
aF7.0
aF9.0
aF8.0
aF11.0
aF4.0
aF7.0
aF10.0
aF5.0
aF5.0
aF9.0
aF9.0
aF11.0
aF7.0
aF7.0
aF9.0
aF10.0
aF10.0
aF9.0
aF9.0
aF12.0
aF3.0
aF10.0
aF8.0
aF12.0
aF6.0
aF7.0
aF11.0
aF5.0
aF9.0
aF10.0
aF10.0
aF7.0
aF5.0
aF7.0
aF4.0
aF11.0
aF14.0
aF9.0
aF4.0
aF4.0
aF14.0
aF4.0
aF5.0
aF12.0
aF21.0
aF8.0
aF5.0
aF4.0
aF7.0
aF3.0
aF7.0
aF5.0
aF8.0
aF4.0
aF7.0
aF7.0
aF8.0
aF7.0
aF11.0
aF4.0
aF7.0
aF9.0
aF5.0
aF9.0
aF4.0
aF8.0
aF3.0
aF10.0
aF12.0
aF4.0
aF9.0
aF9.0
aF10.0
aF9.0
aF8.0
aF10.0
aF8.0
aF15.0
aF13.0
aF8.0
aF6.0
aF8.0
aF12.0
aF6.0
aF9.0
aF11.0
aF8.0
aF8.0
aF7.0
aF3.0
aF5.0
aF8.0
aF9.0
aF9.0
aF7.0
aF9.0
aF7.0
aF14.0
aF9.0
aF7.0
aF6.0
aF9.0
aF8.0
aF16.0
aF7.0
aF8.0
aF11.0
aF6.0
aF5.0
aF12.0
aF11.0
aF7.0
aF8.0
aF12.0
aF8.0
aF7.0
aF12.0
aF10.0
aF13.0
aF8.0
aF8.0
aF9.0
aF14.0
aF8.0
aF15.0
aF11.0
aF6.0
aF13.0
aF9.0
aF6.0
aF5.0
aF18.0
aF11.0
aF3.0
aF7.0
aF6.0
aF12.0
aF11.0
aF14.0
aF6.0
aF10.0
aF11.0
aF9.0
aF12.0
aF7.0
aF9.0
aF6.0
aF6.0
aF9.0
aF10.0
aF10.0
aF8.0
aF8.0
aF11.0
aF8.0
aF8.0
aF8.0
aF8.0
aF5.0
aF10.0
aF16.0
aF8.0
aF13.0
aF10.0
aF4.0
aF7.0
aF7.0
aF7.0
aF8.0
aF9.0
aF12.0
aF7.0
aF13.0
aF7.0
aF9.0
aF6.0
aF10.0
aF10.0
aF6.0
aF16.0
aF9.0
aF10.0
aF3.0
aF14.0
aF12.0
aF6.0
aF8.0
aF12.0
aF5.0
aF8.0
aF8.0
aF14.0
aF7.0
aF14.0
aF9.0
aF13.0
aF14.0
aF16.0
aF8.0
aF5.0
aF4.0
aF10.0
aF4.0
aF7.0
aF8.0
aF7.0
aF8.0
aF10.0
aF10.0
aF11.0
aF9.0
aF14.0
aF20.0
aF9.0
aF13.0
aF11.0
aF11.0
aF14.0
aF9.0
aF9.0
aF9.0
aF15.0
aF6.0
aF8.0
aF11.0
aF11.0
aF7.0
aF4.0
aF2.0
aF6.0
aF9.0
aF9.0
aF9.0
aF10.0
aF9.0
aF9.0
aF5.0
aF20.0
aF9.0
aF21.0
aF13.0
aF11.0
aF10.0
aF11.0
aF8.0
aF15.0
aF15.0
aF8.0
aF11.0
aF3.0
aF9.0
aF7.0
aF13.0
aF5.0
aF7.0
aF6.0
aF11.0
aF10.0
aF17.0
aF13.0
aF23.0
aF7.0
aF13.0
aF12.0
aF7.0
aF8.0
aF12.0
aF10.0
aF13.0
aF7.0
aF7.0
aF7.0
aF8.0
aF10.0
aF13.0
aF12.0
aF10.0
aF9.0
aF14.0
aF6.0
aF11.0
aF16.0
aF6.0
aF13.0
aF13.0
aF8.0
aF13.0
aF11.0
aF7.0
aF8.0
aF3.0
aF5.0
aF14.0
aF14.0
aF3.0
aF11.0
aF18.0
aF15.0
aF16.0
aF9.0
aF8.0
aF5.0
aF4.0
aF8.0
aF8.0
aF5.0
aF7.0
aF8.0
aF9.0
aF11.0
aF8.0
aF5.0
aF12.0
aF4.0
aF7.0
aF9.0
aF9.0
aF11.0
aF7.0
aF5.0
aF10.0
aF13.0
aF6.0
aF4.0
aF6.0
aF7.0
aF4.0
aF12.0
aF6.0
aF8.0
aF10.0
aF7.0
aF4.0
aF5.0
aF8.0
aF10.0
aF9.0
aF7.0
aF7.0
aF9.0
aF7.0
aF4.0
aF8.0
aF3.0
aF7.0
aF7.0
aF10.0
aF5.0
aF8.0
aF8.0
aF11.0
aF8.0
aF9.0
aF7.0
aF5.0
aF6.0
aF4.0
aF3.0
aF5.0
aF1.0
aF0.0
aF5.0
aF4.0
aF4.0
aF6.0
aF5.0
aF4.0
aF7.0
aF3.0
aF4.0
aF7.0
aF9.0
aF7.0
aF8.0
aF3.0
aF8.0
aF8.0
aF6.0
aF3.0
aF7.0
aF8.0
aF2.0
aF11.0
aF6.0
aF8.0
aF9.0
aF5.0
aF8.0
aF14.0
aF18.0
aF8.0
aF5.0
aF8.0
aF5.0
aF9.0
aF4.0
aF6.0
aF11.0
aF7.0
aF12.0
aF8.0
aF12.0
aF7.0
aF6.0
aF5.0
aF4.0
aF5.0
aF6.0
aF12.0
aF9.0
aF6.0
aF3.0
aF4.0
aF11.0
aF7.0
aF10.0
aF10.0
aF4.0
aF6.0
aF5.0
aF10.0
aF4.0
aF9.0
aF9.0
aF5.0
aF8.0
aF8.0
aF7.0
aF3.0
aF9.0
aF3.0
aF17.0
aF10.0
aF6.0
aF8.0
aF7.0
aF5.0
aF5.0
aF6.0
aF9.0
aF8.0
aF9.0
aF9.0
aF6.0
aF7.0
aF12.0
aF3.0
aF10.0
aF4.0
aF9.0
aF7.0
aF6.0
aF12.0
aF11.0
aF8.0
aF9.0
aF10.0
aF7.0
aF7.0
aF7.0
aF9.0
aF4.0
aF7.0
aF6.0
aF7.0
aF8.0
aF12.0
aF8.0
aF12.0
aF5.0
aF11.0
aF7.0
aF11.0
aF6.0
aF13.0
aF10.0
aF8.0
aF10.0
aF15.0
aF10.0
aF11.0
aF6.0
aF3.0
aF4.0
aF8.0
aF4.0
aF3.0
aF9.0
aF7.0
aF6.0
aF6.0
aF7.0
aF9.0
aF1.0
aF11.0
aF7.0
aF9.0
aF13.0
aF10.0
aF5.0
aF8.0
aF12.0
aF5.0
aF11.0
aF5.0
aF8.0
aF13.0
aF11.0
aF3.0
aF10.0
aF7.0
aF5.0
aF8.0
aF8.0
aF7.0
aF3.0
aF5.0
aF11.0
aF5.0
aF9.0
aF9.0
aF10.0
aF8.0
aF8.0
aF10.0
aF13.0
aF9.0
aF8.0
aF8.0
aF7.0
aF7.0
aF8.0
aF10.0
aF7.0
aF8.0
aF7.0
aF8.0
aF12.0
aF5.0
aF3.0
aF7.0
aF7.0
aF13.0
aF5.0
aF10.0
aF14.0
aF9.0
aF10.0
aF8.0
aF5.0
aF9.0
aF11.0
aF7.0
aF8.0
aF7.0
aF9.0
aF10.0
aF17.0
aF5.0
aF8.0
aF9.0
aF12.0
aF6.0
aF7.0
aF4.0
aF5.0
aF9.0
aF9.0
aF6.0
aF4.0
aF8.0
aF11.0
aF6.0
aF10.0
aF12.0
aF9.0
aF7.0
aF6.0
aF13.0
aF5.0
aF6.0
aF11.0
aF8.0
aF10.0
aF9.0
aF7.0
aF7.0
aF5.0
aF10.0
aF11.0
aF6.0
aF9.0
aF6.0
aF11.0
aF14.0
aF10.0
aF7.0
aF3.0
aF10.0
aF6.0
aF8.0
aF6.0
aF13.0
aF6.0
aF7.0
aF9.0
aF7.0
aF7.0
aF11.0
aF7.0
aF12.0
aF13.0
aF15.0
aF11.0
aF7.0
aF7.0
aF15.0
aF14.0
aF6.0
aF11.0
aF6.0
aF14.0
aF6.0
aF7.0
aF7.0
aF10.0
aF9.0
aF7.0
aF5.0
aF7.0
aF9.0
aF4.0
aF9.0
aF8.0
aF6.0
aF3.0
aF7.0
aF9.0
aF8.0
aF10.0
aF10.0
aF12.0
aF7.0
aF6.0
aF7.0
aF7.0
aF4.0
aF8.0
aF3.0
aF8.0
aF17.0
aF5.0
aF8.0
aF8.0
aF7.0
aF9.0
aF7.0
aF8.0
aF10.0
aF2.0
aF7.0
aF3.0
aF3.0
aF6.0
aF3.0
aF5.0
aF3.0
aF5.0
aF3.0
aF7.0
aF6.0
aF7.0
aF8.0
aF8.0
aF9.0
aF5.0
aF5.0
aF2.0
aF4.0
aF6.0
aF8.0
aF4.0
aF8.0
aF7.0
aF3.0
aF3.0
aF10.0
aF6.0
aF6.0
aF9.0
aF7.0
aF11.0
aF7.0
aF6.0
aF4.0
aF3.0
aF8.0
aF7.0
aF7.0
aF3.0
aF5.0
aF4.0
aF8.0
aF4.0
aF3.0
aF8.0
aF10.0
aF4.0
aF6.0
aF6.0
aF7.0
aF4.0
aF7.0
aF5.0
aF5.0
aF5.0
aF5.0
aF5.0
aF3.0
aF10.0
aF8.0
aF10.0
aF5.0
aF3.0
aF4.0
aF5.0
aF2.0
aF8.0
aF9.0
aF1.0
aF8.0
aF9.0
aF6.0
aF5.0
aF4.0
aF5.0
aF2.0
aF6.0
aF4.0
aF7.0
aF5.0
aF5.0
aF7.0
aF2.0
aF6.0
aF4.0
aF6.0
aF6.0
aF6.0
aF7.0
aF9.0
aF9.0
aF13.0
aF13.0
aF3.0
aF4.0
aF8.0
aF4.0
aF9.0
aF5.0
aF7.0
aF5.0
aF5.0
aF0.0
aF3.0
aF0.0
aF4.0
aF4.0
aF5.0
aF1.0
aF7.0
aF1.0
aF4.0
aF2.0
aF3.0
aF8.0
aF8.0
aF10.0
aF7.0
aF13.0
aF12.0
aF8.0
aF9.0
aF8.0
aF10.0
aF6.0
aF9.0
aF3.0
aF8.0
aF8.0
aF7.0
aF8.0
aF17.0
aF12.0
aF10.0
aF3.0
aF13.0
aF7.0
aF3.0
aF9.0
aF8.0
aF4.0
aF13.0
aF7.0
aF8.0
aF16.0
aF8.0
aF9.0
aF6.0
aF11.0
aF8.0
aF9.0
aF4.0
aF5.0
aF7.0
aF9.0
aF11.0
aF10.0
aF9.0
aF12.0
aF10.0
aF10.0
aF6.0
aF9.0
aF10.0
aF10.0
aF10.0
aF3.0
aF6.0
aF6.0
aF12.0
aF8.0
aF8.0
aF9.0
aF9.0
aF3.0
aF4.0
aF8.0
aF6.0
aF9.0
aF5.0
aF5.0
aF5.0
aF13.0
aF11.0
aF9.0
aF4.0
aF9.0
aF10.0
aF6.0
aF12.0
aF5.0
aF9.0
aF7.0
aF6.0
aF9.0
aF7.0
aF11.0
aF12.0
aF8.0
aF6.0
aF8.0
aF9.0
aF12.0
aF10.0
aF8.0
aF10.0
aF8.0
aF7.0
aF6.0
aF4.0
aF6.0
aF9.0
aF13.0
aF10.0
aF11.0
aF9.0
aF15.0
aF6.0
aF5.0
aF9.0
aF8.0
aF6.0
aF8.0
aF6.0
aF7.0
aF7.0
aF4.0
aF5.0
aF10.0
aF14.0
aF12.0
aF6.0
aF12.0
aF8.0
aF10.0
aF11.0
aF7.0
aF8.0
aF8.0
aF8.0
aF6.0
aF10.0
aF11.0
aF9.0
aF6.0
aF3.0
aF9.0
aF4.0
aF12.0
aF8.0
aF10.0
aF9.0
aF1.0
aF10.0
aF7.0
aF8.0
aF6.0
aF5.0
aF5.0
aF5.0
aF8.0
aF13.0
aF7.0
aF6.0
aF10.0
aF6.0
aF8.0
aF3.0
aF9.0
aF13.0
aF6.0
aF5.0
aF7.0
aF5.0
aF5.0
aF6.0
aF9.0
aF3.0
aF13.0
aF8.0
aF9.0
aF7.0
aF10.0
aF12.0
aF8.0
aF8.0
aF10.0
aF9.0
aF5.0
aF4.0
aF8.0
aF7.0
aF6.0
aF9.0
aF7.0
aF5.0
aF6.0
aF8.0
aF10.0
aF11.0
aF4.0
aF9.0
aF9.0
aF9.0
aF7.0
aF10.0
aF7.0
aF5.0
aF9.0
aF9.0
aF10.0
aF17.0
aF9.0
aF12.0
aF11.0
aF3.0
aF7.0
aF9.0
aF4.0
aF6.0
aF7.0
aF5.0
aF9.0
aF12.0
aF5.0
aF7.0
aF5.0
aF7.0
aF8.0
aF4.0
aF10.0
aF3.0
aF9.0
aF9.0
aF7.0
aF8.0
aF9.0
aF10.0
aF10.0
aF4.0
aF8.0
aF12.0
aF3.0
aF3.0
aF12.0
aF2.0
aF4.0
aF8.0
aF8.0
aF6.0
aF17.0
aF14.0
aF8.0
aF7.0
aF9.0
aF10.0
aF10.0
aF6.0
aF7.0
aF6.0
aF7.0
aF10.0
aF9.0
aF8.0
aF5.0
aF12.0
aF6.0
aF8.0
aF6.0
aF8.0
aF10.0
aF11.0
aF8.0
aF12.0
aF7.0
aF5.0
aF7.0
aF3.0
aF8.0
aF10.0
aF6.0
aF8.0
aF7.0
aF4.0
aF9.0
aF6.0
aF13.0
aF8.0
aF11.0
aF12.0
aF13.0
aF9.0
aF8.0
aF13.0
aF9.0
aF10.0
aF6.0
aF9.0
aF10.0
aF9.0
aF9.0
aF11.0
aF12.0
aF4.0
aF8.0
aF7.0
aF10.0
aF5.0
aF16.0
aF12.0
aF8.0
aF9.0
aF7.0
aF5.0
aF8.0
aF8.0
aF10.0
aF17.0
aF14.0
aF11.0
aF9.0
aF9.0
aF11.0
aF8.0
aF5.0
aF9.0
aF11.0
aF3.0
aF7.0
aF7.0
aF6.0
aF8.0
aF10.0
aF12.0
aF7.0
aF7.0
aF5.0
aF8.0
aF12.0
aF7.0
aF10.0
aF12.0
aF11.0
aF8.0
aF3.0
aF5.0
aF7.0
aF15.0
aF6.0
aF12.0
aF6.0
aF5.0
aF12.0
aF8.0
aF9.0
aF5.0
aF7.0
aF12.0
aF7.0
aF12.0
aF10.0
aF8.0
aF6.0
aF4.0
aF7.0
aF13.0
aF19.0
aF7.0
aF11.0
aF9.0
aF8.0
aF4.0
aF7.0
aF8.0
aF4.0
aF10.0
aF8.0
aF13.0
aF13.0
aF10.0
aF7.0
aF10.0
aF12.0
aF11.0
aF15.0
aF6.0
aF9.0
aF6.0
aF7.0
aF5.0
aF7.0
aF5.0
aF7.0
aF8.0
aF9.0
aF15.0
aF12.0
aF6.0
aF9.0
aF6.0
aF16.0
aF11.0
aF9.0
aF10.0
aF10.0
aF8.0
aF9.0
aF15.0
aF10.0
aF16.0
aF6.0
aF10.0
aF10.0
aF11.0
aF9.0
aF4.0
aF5.0
aF4.0
aF14.0
aF9.0
aF6.0
aF17.0
aF9.0
aF15.0
aF8.0
aF10.0
aF8.0
aF10.0
aF7.0
aF11.0
aF12.0
aF11.0
aF6.0
aF8.0
aF4.0
aF6.0
aF11.0
aF16.0
aF14.0
aF5.0
aF4.0
aF7.0
aF7.0
aF5.0
aF9.0
aF12.0
aF4.0
aF5.0
aF14.0
aF7.0
aF7.0
aF4.0
aF10.0
aF13.0
aF6.0
aF13.0
aF10.0
aF5.0
aF7.0
aF5.0
aF8.0
aF4.0
aF5.0
aF9.0
aF5.0
aF7.0
aF3.0
aF3.0
aF5.0
aF5.0
aF5.0
aF4.0
aF5.0
aF6.0
aF7.0
aF8.0
aF9.0
aF13.0
aF10.0
aF6.0
aF5.0
aF8.0
aF3.0
aF13.0
aF11.0
aF4.0
aF9.0
aF11.0
aF10.0
aF6.0
aF9.0
aF13.0
aF10.0
aF5.0
aF5.0
aF4.0
aF4.0
aF6.0
aF10.0
aF8.0
aF10.0
aF2.0
aF12.0
aF11.0
aF12.0
aF9.0
aF11.0
aF9.0
aF8.0
aF12.0
aF8.0
aF10.0
aF11.0
aF3.0
aF10.0
aF7.0
aF5.0
aF9.0
aF7.0
aF7.0
aF12.0
aF6.0
aF6.0
aF8.0
aF6.0
aF7.0
aF8.0
aF4.0
aF7.0
aF16.0
aF10.0
aF17.0
aF8.0
aF10.0
aF5.0
aF8.0
aF11.0
aF9.0
aF8.0
aF15.0
aF10.0
aF9.0
aF9.0
aF5.0
aF8.0
aF11.0
aF10.0
aF7.0
aF8.0
aF5.0
aF11.0
aF11.0
aF6.0
aF12.0
aF12.0
aF12.0
aF14.0
aF7.0
aF6.0
aF4.0
aF7.0
aF8.0
aF10.0
aF8.0
aF10.0
aF5.0
aF6.0
aF5.0
aF9.0
aF7.0
aF7.0
aF10.0
aF10.0
aF10.0
aF16.0
aF7.0
aF10.0
aF10.0
aF12.0
aF10.0
aF9.0
aF12.0
aF11.0
aF4.0
aF10.0
aF9.0
aF3.0
aF10.0
aF8.0
aF10.0
aF10.0
aF10.0
aF7.0
aF11.0
aF10.0
aF12.0
aF8.0
aF13.0
aF6.0
aF6.0
aF11.0
aF9.0
aF6.0
aF13.0
aF8.0
aF10.0
aF7.0
aF11.0
aF7.0
aF6.0
aF8.0
aF7.0
aF10.0
aF15.0
aF12.0
aF9.0
aF10.0
aF5.0
aF9.0
aF12.0
aF5.0
aF14.0
aF9.0
aF12.0
aF14.0
aF3.0
aF13.0
aF11.0
aF6.0
aF11.0
aF13.0
aF12.0
aF12.0
aF11.0
aF7.0
aF11.0
aF18.0
aF9.0
aF11.0
aF7.0
aF13.0
aF11.0
aF5.0
aF10.0
aF12.0
aF9.0
aF5.0
aF10.0
aF18.0
aF8.0
aF10.0
aF9.0
aF8.0
aF8.0
aF8.0
aF5.0
aF9.0
aF8.0
aF8.0
aF7.0
aF9.0
aF7.0
aF12.0
aF9.0
aF6.0
aF9.0
aF15.0
aF12.0
aF5.0
aF11.0
aF11.0
aF5.0
aF8.0
aF5.0
aF10.0
aF3.0
aF6.0
aF7.0
aF3.0
aF11.0
aF10.0
aF10.0
aF10.0
aF17.0
aF9.0
aF3.0
aF5.0
aF7.0
aF6.0
aF7.0
aF11.0
aF8.0
aF3.0
aF11.0
aF5.0
aF6.0
aF4.0
aF15.0
aF6.0
aF11.0
aF8.0
aF8.0
aF8.0
aF9.0
aF10.0
aF10.0
aF6.0
aF6.0
aF10.0
aF10.0
aF7.0
aF9.0
aF10.0
aF4.0
aF4.0
aF10.0
aF14.0
aF12.0
aF10.0
aF9.0
aF8.0
aF8.0
aF11.0
aF7.0
aF9.0
aF10.0
aF9.0
aF9.0
aF9.0
aF8.0
aF7.0
aF7.0
aF10.0
aF10.0
aF7.0
aF11.0
aF7.0
aF8.0
aF7.0
aF8.0
aF11.0
aF14.0
aF7.0
aF6.0
aF7.0
aF10.0
aF9.0
aF16.0
aF10.0
aF15.0
aF8.0
aF10.0
aF8.0
aF10.0
aF10.0
aF6.0
aF5.0
aF10.0
aF6.0
aF6.0
aF12.0
aF11.0
aF8.0
aF3.0
aF13.0
aF7.0
aF8.0
aF4.0
aF9.0
aF11.0
aF7.0
aF7.0
aF12.0
aF7.0
aF7.0
aF10.0
aF10.0
aF3.0
aF6.0
aF12.0
aF3.0
aF11.0
aF9.0
aF14.0
aF8.0
aF6.0
aF8.0
aF10.0
aF13.0
aF10.0
aF9.0
aF18.0
aF13.0
aF11.0
aF13.0
aF11.0
aF9.0
aF8.0
aF10.0
aF8.0
aF14.0
aF8.0
aF10.0
aF8.0
aF11.0
aF14.0
aF7.0
aF13.0
aF16.0
aF5.0
aF16.0
aF5.0
aF13.0
aF10.0
aF11.0
aF7.0
aF9.0
aF9.0
aF8.0
aF6.0
aF12.0
aF7.0
aF5.0
aF13.0
aF4.0
aF9.0
aF7.0
aF4.0
aF5.0
aF11.0
aF10.0
aF7.0
aF11.0
aF8.0
aF9.0
aF14.0
aF9.0
aF4.0
aF8.0
aF4.0
aF6.0
aF12.0
aF7.0
aF9.0
aF8.0
aF9.0
aF7.0
aF10.0
aF10.0
aF7.0
aF5.0
aF12.0
aF9.0
aF11.0
aF18.0
aF11.0
aF5.0
aF9.0
aF9.0
aF13.0
aF13.0
aF6.0
aF12.0
aF7.0
aF7.0
aF8.0
aF13.0
aF9.0
aF11.0
aF8.0
aF3.0
aF12.0
aF8.0
aF12.0
aF18.0
aF11.0
aF7.0
aF11.0
aF9.0
aF9.0
aF6.0
aF7.0
aF10.0
aF24.0
aF9.0
aF4.0
aF8.0
aF9.0
aF9.0
aF8.0
aF11.0
aF10.0
aF7.0
aF30.0
aF7.0
aF16.0
aF7.0
aF5.0
aF5.0
aF7.0
aF7.0
aF7.0
aF7.0
aF8.0
aF12.0
aF9.0
aF13.0
aF14.0
aF8.0
aF6.0
aF10.0
aF11.0
aF12.0
aF11.0
aF7.0
aF7.0
aF6.0
aF14.0
aF10.0
aF11.0
aF14.0
aF10.0
aF8.0
aF5.0
aF5.0
aF12.0
aF9.0
aF4.0
aF7.0
aF3.0
aF9.0
aF10.0
aF8.0
aF13.0
aF6.0
aF9.0
aF8.0
aF9.0
aF10.0
aF12.0
aF9.0
aF10.0
aF4.0
aF7.0
aF6.0
aF8.0
aF8.0
aF8.0
aF10.0
aF13.0
aF7.0
aF10.0
aF8.0
aF9.0
aF12.0
aF9.0
aF11.0
aF7.0
aF3.0
aF3.0
aF11.0
aF7.0
aF10.0
aF7.0
aF10.0
aF9.0
aF9.0
aF19.0
aF9.0
aF2.0
aF8.0
aF3.0
aF10.0
aF7.0
aF12.0
aF15.0
aF8.0
aF8.0
aF5.0
aF11.0
aF9.0
aF9.0
aF7.0
aF12.0
aF8.0
aF11.0
aF9.0
aF9.0
aF9.0
aF9.0
aF5.0
aF19.0
aF6.0
aF11.0
aF9.0
aF3.0
aF9.0
aF10.0
aF3.0
aF12.0
aF8.0
aF6.0
aF5.0
aF8.0
aF11.0
aF7.0
aF6.0
aF12.0
aF5.0
aF12.0
aF7.0
aF5.0
aF9.0
aF7.0
aF10.0
aF12.0
aF9.0
aF9.0
aF10.0
aF8.0
aF11.0
aF7.0
aF10.0
aF7.0
aF11.0
aF5.0
aF5.0
aF5.0
aF6.0
aF5.0
aF8.0
aF11.0
aF10.0
aF4.0
aF7.0
aF5.0
aF9.0
aF7.0
aF6.0
aF7.0
aF10.0
aF10.0
aF5.0
aF12.0
aF9.0
aF9.0
aF8.0
aF8.0
aF4.0
aF11.0
aF5.0
aF8.0
aF7.0
aF14.0
aF6.0
aF11.0
aF6.0
aF8.0
aF11.0
aF10.0
aF10.0
aF11.0
aF4.0
aF8.0
aF8.0
aF4.0
aF10.0
aF6.0
aF3.0
aF7.0
aF12.0
aF6.0
aF7.0
aF14.0
aF9.0
aF8.0
aF5.0
aF9.0
aF11.0
aF12.0
aF7.0
aF9.0
aF9.0
aF5.0
aF9.0
aF12.0
aF6.0
aF12.0
aF8.0
aF5.0
aF14.0
aF7.0
aF4.0
aF4.0
aF8.0
aF10.0
aF8.0
aF7.0
aF10.0
aF8.0
aF8.0
aF7.0
aF5.0
aF10.0
aF10.0
aF10.0
aF6.0
aF4.0
aF8.0
aF4.0
aF7.0
aF10.0
aF6.0
aF9.0
aF12.0
aF11.0
aF10.0
aF3.0
aF6.0
aF6.0
aF11.0
aF5.0
aF9.0
aF9.0
aF18.0
aF14.0
aF12.0
aF11.0
aF7.0
aF12.0
aF4.0
aF10.0
aF17.0
aF14.0
aF9.0
aF11.0
aF6.0
aF10.0
aF6.0
aF7.0
aF4.0
aF11.0
aF11.0
aF11.0
aF15.0
aF6.0
aF8.0
aF9.0
aF6.0
aF6.0
aF4.0
aF7.0
aF14.0
aF10.0
aF7.0
aF7.0
aF10.0
aF7.0
aF6.0
aF14.0
aF3.0
aF23.0
aF9.0
aF11.0
aF10.0
aF7.0
aF9.0
aF21.0
aF6.0
aF13.0
aF13.0
aF9.0
aF6.0
aF9.0
aF14.0
aF14.0
aF12.0
aF9.0
aF13.0
aF9.0
aF14.0
aF15.0
aF17.0
aF12.0
aF8.0
aF9.0
aF8.0
aF7.0
aF5.0
aF15.0
aF9.0
aF16.0
aF12.0
aF7.0
aF12.0
aF11.0
aF5.0
aF10.0
aF11.0
aF12.0
aF15.0
aF12.0
aF9.0
aF6.0
aF12.0
aF8.0
aF12.0
aF3.0
aF8.0
aF7.0
aF7.0
aF9.0
aF8.0
aF8.0
aF8.0
aF11.0
aF17.0
aF11.0
aF9.0
aF9.0
aF9.0
aF8.0
aF4.0
aF8.0
aF5.0
aF9.0
aF7.0
aF12.0
aF4.0
aF9.0
aF7.0
aF7.0
aF9.0
aF6.0
aF12.0
aF6.0
aF16.0
aF10.0
aF5.0
aF8.0
aF8.0
aF18.0
aF6.0
aF10.0
aF16.0
aF9.0
aF10.0
aF3.0
aF4.0
aF6.0
aF3.0
aF1.0
aF7.0
aF3.0
aF10.0
aF5.0
aF4.0
aF4.0
aF2.0
aF16.0
aF8.0
aF7.0
aF5.0
aF15.0
aF5.0
aF7.0
aF9.0
aF4.0
aF3.0
aF6.0
aF3.0
aF6.0
aF9.0
aF3.0
aF4.0
aF7.0
aF5.0
aF2.0
aF5.0
aF5.0
aF4.0
aF4.0
aF3.0
aF2.0
aF1.0
aF5.0
aF4.0
aF4.0
aF5.0
aF4.0
aF6.0
aF3.0
aF4.0
aF5.0
aF3.0
aF4.0
aF4.0
aF3.0
aF4.0
aF3.0
aF4.0
aF5.0
aF4.0
aF4.0
aF4.0
aF6.0
aF3.0
aF4.0
aF2.0
aF4.0
aF3.0
aF5.0
aF4.0
aF5.0
aF6.0
aF4.0
aF3.0
aF5.0
aF5.0
aF8.0
aF5.0
aF5.0
aF4.0
aF6.0
aF8.0
aF5.0
aF6.0
aF7.0
aF7.0
aF9.0
aF11.0
aF7.0
aF8.0
aF10.0
aF3.0
aF9.0
aF4.0
aF16.0
aF13.0
aF6.0
aF6.0
aF9.0
aF13.0
aF11.0
aF11.0
aF8.0
aF8.0
aF7.0
aF9.0
aF13.0
aF14.0
aF11.0
aF7.0
aF5.0
aF8.0
aF10.0
aF9.0
aF10.0
aF6.0
aF9.0
aF6.0
aF10.0
aF5.0
aF16.0
aF7.0
aF9.0
aF9.0
aF8.0
aF10.0
aF12.0
aF9.0
aF5.0
aF7.0
aF7.0
aF11.0
aF7.0
aF10.0
aF6.0
aF5.0
aF9.0
aF5.0
aF8.0
aF9.0
aF5.0
aF8.0
aF7.0
aF10.0
aF14.0
aF8.0
aF4.0
aF12.0
aF12.0
aF3.0
aF8.0
aF8.0
aF10.0
aF8.0
aF7.0
aF9.0
aF7.0
aF9.0
aF5.0
aF11.0
aF10.0
aF9.0
aF11.0
aF11.0
aF5.0
aF6.0
aF8.0
aF9.0
aF8.0
aF15.0
aF7.0
aF12.0
aF9.0
aF4.0
aF4.0
aF6.0
aF8.0
aF8.0
aF6.0
aF8.0
aF3.0
aF6.0
aF6.0
aF8.0
aF8.0
aF9.0
aF7.0
aF9.0
aF9.0
aF5.0
aF8.0
aF7.0
aF4.0
aF13.0
aF7.0
aF5.0
aF5.0
aF9.0
aF4.0
aF6.0
aF9.0
aF6.0
aF5.0
aF8.0
aF4.0
aF7.0
aF7.0
aF6.0
aF7.0
aF7.0
aF9.0
aF8.0
aF8.0
aF7.0
aF5.0
aF7.0
aF8.0
aF12.0
aF9.0
aF8.0
aF8.0
aF9.0
aF8.0
aF4.0
aF8.0
aF11.0
aF3.0
aF12.0
aF8.0
aF5.0
aF7.0
aF6.0
aF5.0
aF7.0
aF10.0
aF8.0
aF3.0
aF4.0
aF9.0
aF4.0
aF7.0
aF8.0
aF4.0
aF8.0
aF9.0
aF4.0
aF7.0
aF7.0
aF5.0
aF7.0
aF7.0
aF3.0
aF5.0
aF6.0
aF7.0
aF3.0
aF3.0
aF11.0
aF5.0
aF10.0
aF8.0
aF8.0
aF5.0
aF4.0
aF5.0
aF6.0
aF4.0
aF9.0
aF9.0
aF7.0
aF4.0
aF8.0
aF4.0
aF3.0
aF9.0
aF9.0
aF7.0
aF10.0
aF3.0
aF5.0
aF9.0
aF4.0
aF4.0
aF9.0
aF7.0
aF7.0
aF9.0
aF10.0
aF8.0
aF10.0
aF5.0
aF7.0
aF5.0
aF8.0
aF6.0
aF4.0
aF4.0
aF5.0
aF4.0
aF10.0
aF8.0
aF4.0
aF3.0
aF8.0
aF11.0
aF4.0
aF5.0
aF12.0
aF9.0
aF5.0
aF4.0
aF8.0
aF12.0
aF4.0
aF5.0
aF11.0
aF5.0
aF8.0
aF3.0
aF4.0
aF4.0
aF5.0
aF6.0
aF7.0
aF8.0
aF5.0
aF7.0
aF6.0
aF8.0
aF6.0
aF5.0
aF9.0
aF11.0
aF10.0
aF10.0
aF7.0
aF8.0
aF4.0
aF9.0
aF9.0
aF9.0
aF4.0
aF6.0
aF5.0
aF7.0
aF5.0
aF5.0
aF9.0
aF8.0
aF8.0
aF11.0
aF10.0
aF7.0
aF8.0
aF9.0
aF3.0
aF8.0
aF4.0
aF13.0
aF8.0
aF7.0
aF10.0
aF14.0
aF4.0
aF3.0
aF9.0
aF8.0
aF10.0
aF5.0
aF11.0
aF9.0
aF8.0
aF5.0
aF11.0
aF6.0
aF12.0
aF5.0
aF4.0
aF8.0
aF5.0
aF14.0
aF5.0
aF4.0
aF7.0
aF3.0
aF15.0
aF5.0
aF5.0
aF9.0
aF8.0
aF10.0
aF6.0
aF6.0
aF5.0
aF7.0
aF2.0
aF10.0
aF11.0
aF6.0
aF10.0
aF8.0
aF6.0
aF7.0
aF10.0
aF6.0
aF4.0
aF6.0
aF6.0
aF5.0
aF7.0
aF9.0
aF10.0
aF8.0
aF7.0
aF5.0
aF4.0
aF7.0
aF7.0
aF14.0
aF3.0
aF6.0
aF10.0
aF7.0
aF7.0
aF4.0
aF3.0
aF6.0
aF5.0
aF9.0
aF13.0
aF3.0
aF13.0
aF9.0
aF8.0
aF7.0
aF10.0
aF7.0
aF6.0
aF8.0
aF10.0
aF9.0
aF7.0
aF3.0
aF5.0
aF5.0
aF19.0
aF5.0
aF5.0
aF6.0
aF8.0
aF10.0
aF6.0
aF10.0
aF3.0
aF7.0
aF5.0
aF6.0
aF7.0
aF12.0
aF10.0
aF6.0
aF16.0
aF7.0
aF9.0
aF14.0
aF9.0
aF16.0
aF7.0
aF10.0
aF8.0
aF4.0
aF8.0
aF7.0
aF7.0
aF9.0
aF11.0
aF11.0
aF13.0
aF4.0
aF12.0
aF5.0
aF10.0
aF9.0
aF9.0
aF6.0
aF14.0
aF8.0
aF5.0
aF10.0
aF12.0
aF8.0
aF4.0
aF13.0
aF12.0
aF10.0
aF12.0
aF4.0
aF7.0
aF5.0
aF13.0
aF9.0
aF10.0
aF13.0
aF4.0
aF8.0
aF8.0
aF4.0
aF9.0
aF7.0
aF8.0
aF3.0
aF11.0
aF6.0
aF10.0
aF8.0
aF11.0
aF8.0
aF8.0
aF9.0
aF17.0
aF10.0
aF13.0
aF11.0
aF4.0
aF12.0
aF7.0
aF9.0
aF13.0
aF8.0
aF7.0
aF10.0
aF17.0
aF13.0
aF10.0
aF8.0
aF4.0
aF9.0
aF8.0
aF8.0
aF11.0
aF6.0
aF9.0
aF14.0
aF6.0
aF11.0
aF13.0
aF11.0
aF15.0
aF12.0
aF11.0
aF9.0
aF8.0
aF12.0
aF12.0
aF10.0
aF7.0
aF9.0
aF5.0
aF11.0
aF10.0
aF8.0
aF12.0
aF7.0
aF8.0
aF17.0
aF13.0
aF17.0
aF9.0
aF10.0
aF9.0
aF9.0
aF4.0
aF11.0
aF11.0
aF8.0
aF11.0
aF4.0
aF10.0
aF8.0
aF7.0
aF11.0
aF7.0
aF9.0
aF10.0
aF9.0
aF8.0
aF9.0
aF6.0
aF6.0
aF11.0
aF8.0
aF11.0
aF11.0
aF11.0
aF9.0
aF4.0
aF5.0
aF11.0
aF14.0
aF13.0
aF5.0
aF18.0
aF3.0
aF8.0
aF10.0
aF11.0
aF4.0
aF5.0
aF8.0
aF10.0
aF10.0
aF10.0
aF12.0
aF9.0
aF10.0
aF11.0
aF10.0
aF10.0
aF9.0
aF6.0
aF9.0
aF12.0
aF4.0
aF9.0
aF9.0
aF9.0
aF9.0
aF6.0
aF6.0
aF8.0
aF11.0
aF6.0
aF12.0
aF9.0
aF9.0
aF6.0
aF7.0
aF9.0
aF12.0
aF10.0
aF7.0
aF8.0
aF8.0
aF9.0
aF17.0
aF8.0
aF10.0
aF15.0
aF6.0
aF10.0
aF11.0
aF7.0
aF15.0
aF9.0
aF10.0
aF5.0
aF19.0
aF10.0
aF9.0
aF6.0
aF12.0
aF6.0
aF11.0
aF14.0
aF11.0
aF8.0
aF12.0
aF5.0
aF5.0
aF12.0
aF9.0
aF4.0
aF19.0
aF20.0
aF10.0
aF21.0
aF11.0
aF8.0
aF7.0
aF6.0
aF7.0
aF10.0
aF6.0
aF6.0
aF9.0
aF8.0
aF7.0
aF8.0
aF13.0
aF14.0
aF11.0
aF12.0
aF8.0
aF10.0
aF5.0
aF15.0
aF10.0
aF6.0
aF8.0
aF11.0
aF5.0
aF5.0
aF13.0
aF7.0
aF8.0
aF6.0
aF10.0
aF7.0
aF12.0
aF8.0
aF6.0
aF8.0
aF7.0
aF8.0
aF12.0
aF7.0
aF9.0
aF11.0
aF7.0
aF6.0
aF14.0
aF6.0
aF15.0
aF12.0
aF4.0
aF9.0
aF17.0
aF7.0
aF10.0
aF9.0
aF17.0
aF12.0
aF9.0
aF8.0
aF10.0
aF8.0
aF11.0
aF10.0
aF10.0
aF11.0
aF13.0
aF8.0
aF12.0
aF11.0
aF5.0
aF14.0
aF9.0
aF7.0
aF9.0
aF10.0
aF8.0
aF6.0
aF16.0
aF9.0
aF5.0
aF9.0
aF8.0
aF16.0
aF10.0
aF20.0
aF12.0
aF10.0
aF12.0
aF6.0
aF10.0
aF18.0
aF5.0
aF14.0
aF9.0
aF17.0
aF14.0
aF11.0
aF8.0
aF14.0
aF8.0
aF7.0
aF9.0
aF17.0
aF8.0
aF8.0
aF7.0
aF17.0
aF19.0
aF5.0
aF7.0
aF7.0
aF8.0
aF3.0
aF13.0
aF14.0
aF15.0
aF4.0
aF12.0
aF22.0
aF16.0
aF14.0
aF14.0
aF10.0
aF17.0
aF6.0
aF15.0
aF13.0
aF7.0
aF9.0
aF7.0
aF4.0
aF11.0
aF13.0
aF6.0
aF7.0
aF6.0
aF17.0
aF16.0
aF12.0
aF11.0
aF7.0
aF6.0
aF7.0
aF9.0
aF8.0
aF14.0
aF9.0
aF23.0
aF6.0
aF2.0
aF14.0
aF7.0
aF6.0
aF11.0
aF10.0
aF5.0
aF8.0
aF9.0
aF9.0
aF9.0
aF6.0
aF14.0
aF1.0
aF7.0
aF3.0
aF10.0
aF16.0
aF7.0
aF7.0
aF6.0
aF4.0
aF9.0
aF9.0
aF5.0
aF8.0
aF4.0
aF8.0
aF3.0
aF6.0
aF7.0
aF7.0
aF5.0
aF8.0
aF2.0
aF10.0
aF6.0
aF9.0
aF10.0
aF4.0
aF6.0
aF6.0
aF6.0
aF5.0
aF5.0
aF5.0
aF4.0
aF10.0
aF9.0
aF11.0
aF9.0
aF2.0
aF7.0
aF2.0
aF11.0
aF2.0
aF14.0
aF5.0
aF5.0
aF3.0
aF4.0
aF7.0
aF6.0
aF7.0
aF11.0
aF6.0
aF3.0
aF6.0
aF6.0
aF5.0
aF6.0
aF6.0
aF3.0
aF6.0
aF4.0
aF4.0
aF6.0
aF6.0
aF3.0
aF8.0
aF11.0
aF6.0
aF4.0
aF8.0
aF7.0
aF7.0
aF1.0
aF5.0
aF6.0
aF4.0
aF6.0
aF9.0
aF6.0
aF5.0
aF4.0
aF5.0
aF6.0
aF6.0
aF6.0
aF7.0
aF7.0
aF4.0
aF6.0
aF2.0
aF8.0
aF2.0
aF6.0
aF5.0
aF5.0
aF7.0
aF5.0
aF6.0
aF5.0
aF6.0
aF5.0
aF8.0
aF5.0
aF7.0
aF4.0
aF7.0
aF6.0
aF7.0
aF8.0
aF6.0
aF4.0
aF5.0
aF8.0
aF6.0
aF11.0
aF5.0
aF4.0
aF5.0
aF4.0
aF6.0
aF5.0
aF7.0
aF5.0
aF9.0
aF5.0
aF7.0
aF8.0
aF5.0
aF2.0
aF7.0
aF4.0
aF6.0
aF10.0
aF4.0
aF6.0
aF6.0
aF7.0
aF11.0
aF6.0
aF6.0
aF13.0
aF9.0
aF7.0
aF11.0
aF8.0
aF6.0
aF9.0
aF16.0
aF10.0
aF11.0
aF6.0
aF11.0
aF4.0
aF7.0
aF3.0
aF4.0
aF5.0
aF7.0
aF5.0
aF7.0
aF6.0
aF6.0
aF5.0
aF6.0
aF4.0
aF5.0
aF5.0
aF6.0
aF9.0
aF6.0
aF7.0
aF9.0
aF8.0
aF7.0
aF7.0
aF8.0
aF6.0
aF6.0
aF8.0
aF6.0
aF6.0
aF7.0
aF8.0
aF7.0
aF5.0
aF6.0
aF7.0
aF3.0
aF9.0
aF8.0
aF8.0
aF10.0
aF8.0
aF4.0
aF12.0
aF10.0
aF20.0
aF6.0
aF6.0
aF8.0
aF6.0
aF9.0
aF7.0
aF5.0
aF10.0
aF3.0
aF7.0
aF6.0
aF8.0
aF7.0
aF5.0
aF4.0
aF10.0
aF4.0
aF7.0
aF5.0
aF3.0
aF5.0
aF6.0
aF5.0
aF4.0
aF3.0
aF6.0
aF7.0
aF6.0
aF5.0
aF4.0
aF12.0
aF8.0
aF10.0
aF7.0
aF6.0
aF9.0
aF7.0
aF8.0
aF8.0
aF7.0
aF6.0
aF8.0
aF2.0
aF7.0
aF1.0
aF3.0
aF7.0
aF5.0
aF5.0
aF4.0
aF6.0
aF4.0
aF6.0
aF8.0
aF13.0
aF3.0
aF10.0
aF10.0
aF6.0
aF15.0
aF4.0
aF8.0
aF7.0
aF6.0
aF8.0
aF6.0
aF3.0
aF6.0
aF5.0
aF9.0
aF15.0
aF8.0
aF1.0
aF3.0
aF9.0
aF9.0
aF12.0
aF5.0
aF10.0
aF4.0
aF9.0
aF5.0
aF7.0
aF8.0
aF6.0
aF10.0
aF5.0
aF9.0
aF3.0
aF7.0
aF7.0
aF3.0
aF8.0
aF10.0
aF6.0
aF6.0
aF9.0
aF8.0
aF5.0
aF12.0
aF7.0
aF6.0
aF15.0
aF8.0
aF11.0
aF4.0
aF13.0
aF16.0
aF10.0
aF15.0
aF18.0
aF10.0
aF11.0
aF10.0
aF8.0
aF8.0
aF4.0
aF8.0
aF6.0
aF7.0
aF4.0
aF10.0
aF9.0
aF9.0
aF4.0
aF12.0
aF8.0
aF9.0
aF12.0
aF9.0
aF12.0
aF7.0
aF11.0
aF2.0
aF10.0
aF7.0
aF9.0
aF9.0
aF5.0
aF8.0
aF6.0
aF8.0
aF7.0
aF12.0
aF6.0
aF7.0
aF8.0
aF7.0
aF7.0
aF7.0
aF9.0
aF11.0
aF8.0
aF8.0
aF13.0
aF4.0
aF6.0
aF5.0
aF8.0
aF4.0
aF9.0
aF8.0
aF3.0
aF6.0
aF2.0
aF4.0
aF3.0
aF5.0
aF8.0
aF8.0
aF7.0
aF6.0
aF7.0
aF4.0
aF6.0
aF7.0
aF6.0
aF8.0
aF3.0
aF7.0
aF4.0
aF8.0
aF4.0
aF8.0
aF7.0
aF5.0
aF6.0
aF4.0
aF8.0
aF6.0
aF8.0
aF4.0
aF15.0
aF4.0
aF9.0
aF12.0
aF6.0
aF3.0
aF6.0
aF5.0
aF9.0
aF4.0
aF8.0
aF6.0
aF8.0
aF7.0
aF8.0
aF10.0
aF8.0
aF6.0
aF3.0
aF6.0
aF7.0
aF5.0
aF9.0
aF9.0
aF8.0
aF9.0
aF10.0
aF10.0
aF4.0
aF9.0
aF8.0
aF3.0
aF7.0
aF4.0
aF8.0
aF7.0
aF6.0
aF9.0
aF5.0
aF5.0
aF11.0
aF12.0
aF6.0
aF7.0
aF10.0
aF9.0
aF8.0
aF10.0
aF8.0
aF8.0
aF4.0
aF5.0
aF2.0
aF6.0
aF5.0
aF6.0
aF6.0
aF9.0
aF7.0
aF8.0
aF9.0
aF12.0
aF11.0
aF5.0
aF5.0
aF7.0
aF8.0
aF10.0
aF7.0
aF5.0
aF10.0
aF6.0
aF13.0
aF8.0
aF5.0
aF10.0
aF7.0
aF10.0
aF11.0
aF5.0
aF10.0
aF11.0
aF5.0
aF8.0
aF11.0
aF9.0
aF10.0
aF10.0
aF8.0
aF11.0
aF6.0
aF4.0
aF6.0
aF6.0
aF6.0
aF4.0
aF7.0
aF5.0
aF7.0
aF7.0
aF8.0
aF9.0
aF5.0
aF4.0
aF10.0
aF6.0
aF7.0
aF5.0
aF5.0
aF7.0
aF8.0
aF9.0
aF9.0
aF3.0
aF10.0
aF9.0
aF8.0
aF11.0
aF7.0
aF3.0
aF9.0
aF5.0
aF6.0
aF5.0
aF7.0
aF7.0
aF7.0
aF6.0
aF8.0
aF7.0
aF5.0
aF8.0
aF5.0
aF4.0
aF11.0
aF11.0
aF6.0
aF5.0
aF4.0
aF8.0
aF6.0
aF11.0
aF3.0
aF5.0
aF16.0
aF2.0
aF1.0
aF12.0
aF6.0
aF3.0
aF6.0
aF7.0
aF7.0
aF7.0
aF3.0
aF9.0
aF4.0
aF6.0
aF4.0
aF5.0
aF5.0
aF8.0
aF6.0
aF7.0
aF14.0
aF9.0
aF7.0
aF7.0
aF8.0
aF7.0
aF7.0
aF9.0
aF5.0
aF5.0
aF5.0
aF9.0
aF6.0
aF4.0
aF13.0
aF4.0
aF7.0
aF9.0
aF6.0
aF5.0
aF7.0
aF5.0
aF8.0
aF5.0
aF7.0
aF10.0
aF8.0
aF2.0
aF9.0
aF14.0
aF8.0
aF10.0
aF7.0
aF9.0
aF4.0
aF7.0
aF7.0
aF5.0
aF4.0
aF6.0
aF5.0
aF9.0
aF7.0
aF7.0
aF7.0
aF4.0
aF9.0
aF1.0
aF11.0
aF9.0
aF8.0
aF6.0
aF9.0
aF7.0
aF6.0
aF7.0
aF7.0
aF7.0
aF4.0
aF6.0
aF5.0
aF9.0
aF7.0
aF5.0
aF6.0
aF9.0
aF7.0
aF7.0
aF8.0
aF6.0
aF5.0
aF3.0
aF6.0
aF17.0
aF3.0
aF9.0
aF7.0
aF6.0
aF10.0
aF3.0
aF11.0
aF6.0
aF9.0
aF5.0
aF5.0
aF7.0
aF9.0
aF3.0
aF9.0
aF4.0
aF8.0
aF7.0
aF6.0
aF6.0
aF7.0
aF5.0
aF6.0
aF5.0
aF5.0
aF6.0
aF7.0
aF7.0
aF7.0
aF13.0
aF6.0
aF5.0
aF6.0
aF4.0
aF9.0
aF5.0
aF9.0
aF7.0
aF4.0
aF9.0
aF10.0
aF4.0
aF6.0
aF8.0
aF5.0
aF4.0
aF11.0
aF12.0
aF6.0
aF9.0
aF8.0
aF9.0
aF8.0
aF7.0
aF6.0
aF2.0
aF7.0
aF8.0
aF11.0
aF8.0
aF5.0
aF8.0
aF7.0
aF9.0
aF5.0
aF11.0
aF5.0
aF2.0
aF4.0
aF11.0
aF10.0
aF7.0
aF8.0
aF5.0
aF11.0
aF9.0
aF6.0
aF8.0
aF3.0
aF5.0
aF7.0
aF11.0
aF11.0
aF6.0
aF3.0
aF11.0
aF10.0
aF10.0
aF5.0
aF4.0
aF5.0
aF9.0
aF8.0
aF7.0
aF7.0
aF5.0
aF4.0
aF9.0
aF3.0
aF6.0
aF8.0
aF8.0
aF7.0
aF6.0
aF11.0
aF12.0
aF6.0
aF7.0
aF6.0
aF8.0
aF8.0
aF4.0
aF9.0
aF7.0
aF5.0
aF3.0
aF6.0
aF3.0
aF9.0
aF7.0
aF11.0
aF9.0
aF8.0
aF6.0
aF9.0
aF6.0
aF6.0
aF8.0
aF10.0
aF12.0
aF7.0
aF4.0
aF7.0
aF9.0
aF7.0
aF6.0
aF6.0
aF6.0
aF9.0
aF11.0
aF5.0
aF8.0
aF6.0
aF7.0
aF9.0
aF9.0
aF13.0
aF9.0
aF8.0
aF11.0
aF3.0
aF7.0
aF11.0
aF14.0
aF6.0
aF14.0
aF4.0
aF9.0
aF9.0
aF7.0
aF5.0
aF8.0
aF8.0
aF11.0
aF9.0
aF4.0
aF7.0
aF9.0
aF6.0
aF6.0
aF8.0
aF3.0
aF5.0
aF9.0
aF8.0
aF9.0
aF11.0
aF9.0
aF10.0
aF4.0
aF8.0
aF5.0
aF6.0
aF12.0
aF7.0
aF9.0
aF4.0
aF16.0
aF6.0
aF19.0
aF10.0
aF4.0
aF11.0
aF5.0
aF8.0
aF9.0
aF6.0
aF5.0
aF7.0
aF9.0
aF5.0
aF10.0
aF8.0
aF6.0
aF8.0
aF6.0
aF6.0
aF5.0
aF6.0
aF6.0
aF9.0
aF11.0
aF7.0
aF7.0
aF9.0
aF11.0
aF8.0
aF4.0
aF7.0
aF6.0
aF6.0
aF6.0
aF8.0
aF9.0
aF4.0
aF8.0
aF8.0
aF6.0
aF5.0
aF6.0
aF3.0
aF4.0
aF6.0
aF7.0
aF5.0
aF6.0
aF7.0
aF5.0
aF6.0
aF3.0
aF14.0
aF6.0
aF7.0
aF9.0
aF8.0
aF8.0
aF6.0
aF6.0
aF4.0
aF6.0
aF8.0
aF14.0
aF8.0
aF10.0
aF6.0
aF5.0
aF13.0
aF6.0
aF9.0
aF11.0
aF7.0
aF8.0
aF9.0
aF4.0
aF8.0
aF7.0
aF14.0
aF10.0
aF5.0
aF7.0
aF10.0
aF9.0
aF3.0
aF6.0
aF9.0
aF8.0
aF9.0
aF5.0
aF13.0
aF6.0
aF12.0
aF6.0
aF11.0
aF12.0
aF11.0
aF4.0
aF6.0
aF14.0
aF13.0
aF11.0
aF2.0
aF5.0
aF3.0
aF11.0
aF15.0
aF8.0
aF14.0
aF9.0
aF9.0
aF11.0
aF9.0
aF6.0
aF7.0
aF13.0
aF9.0
aF10.0
aF10.0
aF11.0
aF9.0
aF11.0
aF4.0
aF4.0
aF9.0
aF10.0
aF11.0
aF5.0
aF4.0
aF7.0
aF7.0
aF5.0
aF13.0
aF11.0
aF7.0
aF10.0
aF9.0
aF4.0
aF6.0
aF10.0
aF6.0
aF7.0
aF6.0
aF11.0
aF8.0
aF5.0
aF6.0
aF4.0
aF4.0
aF3.0
aF7.0
aF8.0
aF8.0
aF6.0
aF13.0
aF5.0
aF11.0
aF9.0
aF10.0
aF10.0
aF11.0
aF4.0
aF7.0
aF5.0
aF13.0
aF9.0
aF5.0
aF8.0
aF9.0
aF10.0
aF8.0
aF5.0
aF10.0
aF8.0
aF7.0
aF5.0
aF8.0
aF8.0
aF17.0
aF8.0
aF9.0
aF7.0
aF7.0
aF13.0
aF7.0
aF6.0
aF11.0
aF14.0
aF8.0
aF9.0
aF11.0
aF10.0
aF12.0
aF10.0
aF10.0
aF14.0
aF7.0
aF11.0
aF7.0
aF7.0
aF6.0
aF9.0
aF7.0
aF4.0
aF9.0
aF5.0
aF6.0
aF5.0
aF12.0
aF8.0
aF7.0
aF9.0
aF7.0
aF5.0
aF4.0
aF13.0
aF12.0
aF10.0
aF6.0
aF8.0
aF3.0
aF11.0
aF7.0
aF11.0
aF3.0
aF4.0
aF8.0
aF4.0
aF4.0
aF8.0
aF7.0
aF8.0
aF7.0
aF6.0
aF12.0
aF4.0
aF7.0
aF8.0
aF9.0
aF9.0
aF4.0
aF8.0
aF6.0
aF2.0
aF10.0
aF10.0
aF8.0
aF4.0
aF7.0
aF9.0
aF5.0
aF13.0
aF5.0
aF7.0
aF8.0
aF6.0
aF6.0
aF9.0
aF5.0
aF6.0
aF13.0
aF6.0
aF11.0
aF8.0
aF7.0
aF7.0
aF3.0
aF5.0
aF8.0
aF8.0
aF9.0
aF8.0
aF4.0
aF6.0
aF8.0
aF8.0
aF7.0
aF5.0
aF7.0
aF3.0
aF6.0
aF4.0
aF5.0
aF8.0
aF5.0
aF17.0
aF10.0
aF10.0
aF9.0
aF5.0
aF9.0
aF4.0
aF9.0
aF6.0
aF12.0
aF8.0
aF14.0
aF12.0
aF17.0
aF10.0
aF8.0
aF6.0
aF11.0
aF20.0
aF5.0
aF4.0
aF10.0
aF3.0
aF9.0
aF6.0
aF17.0
aF12.0
aF10.0
aF14.0
aF11.0
aF8.0
aF14.0
aF4.0
aF7.0
aF4.0
aF7.0
aF4.0
aF10.0
aF8.0
aF10.0
aF13.0
aF10.0
aF7.0
aF11.0
aF7.0
aF8.0
aF4.0
aF8.0
aF7.0
aF7.0
aF12.0
aF12.0
aF20.0
aF8.0
aF16.0
aF11.0
aF7.0
aF7.0
aF16.0
aF11.0
aF4.0
aF12.0
aF5.0
aF4.0
aF6.0
aF9.0
aF6.0
aF7.0
aF6.0
aF9.0
aF11.0
aF6.0
aF15.0
aF1.0
aF6.0
aF9.0
aF3.0
aF3.0
aF13.0
aF4.0
aF6.0
aF7.0
aF5.0
aF17.0
aF10.0
aF2.0
aF7.0
aF13.0
aF9.0
aF13.0
aF10.0
aF6.0
aF5.0
aF10.0
aF5.0
aF10.0
aF8.0
aF4.0
aF8.0
aF10.0
aF5.0
aF14.0
aF9.0
aF12.0
aF8.0
aF8.0
aF9.0
aF4.0
aF5.0
aF7.0
aF11.0
aF6.0
aF13.0
aF11.0
aF6.0
aF10.0
aF12.0
aF4.0
aF9.0
aF10.0
aF5.0
aF11.0
aF5.0
aF8.0
aF9.0
aF14.0
aF20.0
a.