(lp0
F264.0
aF132.0
aF528.0
aF352.0
aF132.0
aF352.0
aF264.0
aF484.0
aF308.0
aF220.0
aF308.0
aF440.0
aF396.0
aF352.0
aF572.0
aF264.0
aF852.0
aF220.0
aF220.0
aF660.0
aF352.0
aF440.0
aF396.0
aF396.0
aF396.0
aF220.0
aF264.0
aF352.0
aF132.0
aF264.0
aF484.0
aF440.0
aF528.0
aF220.0
aF132.0
aF220.0
aF396.0
aF264.0
aF528.0
aF572.0
aF396.0
aF616.0
aF440.0
aF220.0
aF132.0
aF396.0
aF308.0
aF440.0
aF484.0
aF616.0
aF88.0
aF264.0
aF220.0
aF308.0
aF352.0
aF440.0
aF264.0
aF352.0
aF264.0
aF132.0
aF572.0
aF220.0
aF220.0
aF572.0
aF396.0
aF528.0
aF440.0
aF440.0
aF396.0
aF396.0
aF440.0
aF440.0
aF396.0
aF396.0
aF176.0
aF352.0
aF440.0
aF352.0
aF308.0
aF308.0
aF220.0
aF264.0
aF396.0
aF264.0
aF396.0
aF352.0
aF308.0
aF308.0
aF132.0
aF352.0
aF264.0
aF572.0
aF396.0
aF660.0
aF396.0
aF396.0
aF396.0
aF528.0
aF528.0
aF308.0
aF264.0
aF440.0
aF308.0
aF176.0
aF220.0
aF528.0
aF484.0
aF396.0
aF264.0
aF264.0
aF660.0
aF308.0
aF484.0
aF264.0
aF528.0
aF660.0
aF308.0
aF220.0
aF352.0
aF484.0
aF396.0
aF308.0
aF220.0
aF220.0
aF264.0
aF396.0
aF616.0
aF264.0
aF132.0
aF484.0
aF396.0
aF132.0
aF176.0
aF484.0
aF308.0
aF264.0
aF660.0
aF528.0
aF176.0
aF660.0
aF308.0
aF308.0
aF528.0
aF176.0
aF176.0
aF220.0
aF616.0
aF308.0
aF396.0
aF440.0
aF220.0
aF352.0
aF396.0
aF660.0
aF440.0
aF352.0
aF528.0
aF264.0
aF176.0
aF528.0
aF804.0
aF528.0
aF660.0
aF220.0
aF352.0
aF528.0
aF220.0
aF176.0
aF616.0
aF572.0
aF484.0
aF396.0
aF264.0
aF440.0
aF616.0
aF396.0
aF176.0
aF572.0
aF616.0
aF528.0
aF308.0
aF396.0
aF352.0
aF396.0
aF484.0
aF572.0
aF220.0
aF528.0
aF440.0
aF264.0
aF1092.0
aF660.0
aF308.0
aF484.0
aF352.0
aF528.0
aF440.0
aF352.0
aF220.0
aF660.0
aF660.0
aF440.0
aF804.0
aF132.0
aF616.0
aF660.0
aF528.0
aF264.0
aF220.0
aF308.0
aF572.0
aF308.0
aF308.0
aF352.0
aF484.0
aF264.0
aF528.0
aF660.0
aF572.0
aF528.0
aF660.0
aF440.0
aF756.0
aF660.0
aF264.0
aF572.0
aF396.0
aF660.0
aF308.0
aF308.0
aF484.0
aF352.0
aF308.0
aF484.0
aF528.0
aF396.0
aF220.0
aF220.0
aF572.0
aF572.0
aF440.0
aF308.0
aF528.0
aF660.0
aF440.0
aF220.0
aF352.0
aF440.0
aF352.0
aF396.0
aF660.0
aF528.0
aF352.0
aF484.0
aF756.0
aF220.0
aF616.0
aF616.0
aF616.0
aF660.0
aF484.0
aF352.0
aF660.0
aF804.0
aF396.0
aF308.0
aF308.0
aF352.0
aF352.0
aF396.0
aF396.0
aF528.0
aF572.0
aF352.0
aF572.0
aF616.0
aF528.0
aF572.0
aF616.0
aF264.0
aF264.0
aF396.0
aF176.0
aF264.0
aF484.0
aF396.0
aF528.0
aF804.0
aF440.0
aF616.0
aF308.0
aF708.0
aF352.0
aF176.0
aF396.0
aF440.0
aF528.0
aF572.0
aF220.0
aF804.0
aF660.0
aF308.0
aF528.0
aF264.0
aF484.0
aF396.0
aF572.0
aF616.0
aF484.0
aF484.0
aF352.0
aF484.0
aF616.0
aF660.0
aF396.0
aF352.0
aF708.0
aF528.0
aF528.0
aF308.0
aF572.0
aF484.0
aF308.0
aF308.0
aF484.0
aF440.0
aF352.0
aF396.0
aF308.0
aF616.0
aF572.0
aF352.0
aF528.0
aF308.0
aF660.0
aF440.0
aF396.0
aF528.0
aF308.0
aF440.0
aF132.0
aF616.0
aF264.0
aF88.0
aF660.0
aF572.0
aF132.0
aF220.0
aF616.0
aF396.0
aF660.0
aF484.0
aF352.0
aF88.0
aF308.0
aF528.0
aF352.0
aF660.0
aF616.0
aF308.0
aF352.0
aF660.0
aF308.0
aF572.0
aF484.0
aF528.0
aF804.0
aF220.0
aF88.0
aF852.0
aF352.0
aF440.0
aF132.0
aF396.0
aF396.0
aF352.0
aF352.0
aF176.0
aF528.0
aF572.0
aF484.0
aF572.0
aF528.0
aF352.0
aF220.0
aF176.0
aF352.0
aF484.0
aF264.0
aF440.0
aF572.0
aF572.0
aF572.0
aF176.0
aF132.0
aF176.0
aF264.0
aF396.0
aF176.0
aF264.0
aF176.0
aF264.0
aF264.0
aF264.0
aF220.0
aF528.0
aF264.0
aF528.0
aF308.0
aF484.0
aF308.0
aF264.0
aF396.0
aF440.0
aF352.0
aF396.0
aF132.0
aF220.0
aF396.0
aF396.0
aF352.0
aF308.0
aF308.0
aF484.0
aF440.0
aF308.0
aF220.0
aF440.0
aF528.0
aF176.0
aF572.0
aF308.0
aF308.0
aF528.0
aF396.0
aF440.0
aF660.0
aF264.0
aF176.0
aF352.0
aF660.0
aF308.0
aF352.0
aF352.0
aF176.0
aF264.0
aF396.0
aF264.0
aF88.0
aF264.0
aF396.0
aF660.0
aF132.0
aF616.0
aF616.0
aF440.0
aF264.0
aF660.0
aF440.0
aF132.0
aF352.0
aF484.0
aF660.0
aF220.0
aF132.0
aF176.0
aF440.0
aF660.0
aF616.0
aF176.0
aF484.0
aF616.0
aF440.0
aF484.0
aF220.0
aF264.0
aF528.0
aF396.0
aF528.0
aF264.0
aF660.0
aF484.0
aF220.0
aF440.0
aF132.0
aF528.0
aF660.0
aF176.0
aF220.0
aF484.0
aF440.0
aF660.0
aF756.0
aF396.0
aF484.0
aF220.0
aF660.0
aF756.0
aF572.0
aF756.0
aF572.0
aF308.0
aF396.0
aF176.0
aF660.0
aF264.0
aF528.0
aF804.0
aF308.0
aF176.0
aF264.0
aF660.0
aF264.0
aF528.0
aF308.0
aF264.0
aF708.0
aF528.0
aF616.0
aF440.0
aF572.0
aF660.0
aF484.0
aF528.0
aF396.0
aF616.0
aF616.0
aF484.0
aF528.0
aF308.0
aF264.0
aF660.0
aF572.0
aF660.0
aF660.0
aF572.0
aF572.0
aF484.0
aF440.0
aF528.0
aF572.0
aF572.0
aF264.0
aF352.0
aF440.0
aF352.0
aF660.0
aF528.0
aF352.0
aF616.0
aF528.0
aF484.0
aF352.0
aF440.0
aF176.0
aF572.0
aF484.0
aF572.0
aF308.0
aF660.0
aF660.0
aF616.0
aF440.0
aF308.0
aF264.0
aF660.0
aF264.0
aF220.0
aF440.0
aF440.0
aF396.0
aF572.0
aF660.0
aF396.0
aF708.0
aF440.0
aF440.0
aF616.0
aF572.0
aF660.0
aF396.0
aF176.0
aF440.0
aF352.0
aF440.0
aF708.0
aF660.0
aF660.0
aF264.0
aF528.0
aF616.0
aF352.0
aF220.0
aF616.0
aF132.0
aF440.0
aF660.0
aF396.0
aF220.0
aF572.0
a.